
21.elf:     file format elf32-littlearm
21.elf
architecture: arm, flags 0x00000112:
EXEC_P, HAS_SYMS, D_PAGED
start address 0x00006c59

Program Header:
    LOAD off    0x00000000 vaddr 0x00000000 paddr 0x00000000 align 2**16
         filesz 0x000068c0 memsz 0x000068c0 flags r--
    LOAD off    0x00006c00 vaddr 0x00006c00 paddr 0x00006c00 align 2**16
         filesz 0x00000010 memsz 0x00000010 flags r--
    LOAD off    0x00006c10 vaddr 0x00006c10 paddr 0x00006c10 align 2**16
         filesz 0x000034f0 memsz 0x000034f0 flags rwx
    LOAD off    0x00010400 vaddr 0x20000400 paddr 0x20000400 align 2**16
         filesz 0x00000000 memsz 0x00000328 flags rw-
private flags = 5000200: [Version5 EABI] [soft-float ABI]

Sections:
Idx Name            Size      VMA       LMA       File off  Algn  Flags
  0 .interrupts     000000c0  00006800  00006800  00006800  2**2  CONTENTS, ALLOC, LOAD, READONLY, DATA
  1 .flash_config   00000010  00006c00  00006c00  00006c00  2**0  CONTENTS, ALLOC, LOAD, READONLY, DATA
  2 .text           000034e0  00006c10  00006c10  00006c10  2**2  CONTENTS, ALLOC, LOAD, READONLY, CODE
  3 .ARM            00000008  0000a0f0  0000a0f0  0000a0f0  2**2  CONTENTS, ALLOC, LOAD, READONLY, DATA
  4 .init_array     00000004  0000a0f8  0000a0f8  0000a0f8  2**2  CONTENTS, ALLOC, LOAD, DATA
  5 .fini_array     00000004  0000a0fc  0000a0fc  0000a0fc  2**2  CONTENTS, ALLOC, LOAD, DATA
  6 .mtb            00000000  20000400  20000400  0000a100  2**0  CONTENTS
  7 .data           00000000  20000400  20000400  0000a100  2**0  CONTENTS, ALLOC, LOAD, DATA
  8 .bss            00000024  20000400  20000400  00010400  2**2  ALLOC
  9 .heap           00000204  20000424  20000424  00010400  2**0  ALLOC
 10 .stack          00000100  20000628  20000628  00010400  2**0  ALLOC
 11 .ARM.attributes 00000028  00000000  00000000  0000a100  2**0  CONTENTS, READONLY
 12 .debug_info     0000d213  00000000  00000000  0000a128  2**0  CONTENTS, READONLY, DEBUGGING
 13 .debug_abbrev   0000206f  00000000  00000000  0001733b  2**0  CONTENTS, READONLY, DEBUGGING
 14 .debug_aranges  000003f0  00000000  00000000  000193b0  2**3  CONTENTS, READONLY, DEBUGGING
 15 .debug_ranges   00000310  00000000  00000000  000197a0  2**0  CONTENTS, READONLY, DEBUGGING
 16 .debug_macro    00001afb  00000000  00000000  00019ab0  2**0  CONTENTS, READONLY, DEBUGGING
 17 .debug_line     00003a28  00000000  00000000  0001b5ab  2**0  CONTENTS, READONLY, DEBUGGING
 18 .debug_str      0004f727  00000000  00000000  0001efd3  2**0  CONTENTS, READONLY, DEBUGGING
 19 .comment        0000007e  00000000  00000000  0006e6fa  2**0  CONTENTS, READONLY
 20 .debug_frame    00000c24  00000000  00000000  0006e778  2**2  CONTENTS, READONLY, DEBUGGING
 21 .debug_loc      000034c0  00000000  00000000  0006f39c  2**0  CONTENTS, READONLY, DEBUGGING
SYMBOL TABLE:
00006800 l    d  .interrupts	00000000 .interrupts
00006c00 l    d  .flash_config	00000000 .flash_config
00006c10 l    d  .text	00000000 .text
0000a0f0 l    d  .ARM	00000000 .ARM
0000a0f8 l    d  .init_array	00000000 .init_array
0000a0fc l    d  .fini_array	00000000 .fini_array
20000400 l    d  .mtb	00000000 .mtb
20000400 l    d  .data	00000000 .data
20000400 l    d  .bss	00000000 .bss
20000424 l    d  .heap	00000000 .heap
20000628 l    d  .stack	00000000 .stack
00000000 l    d  .ARM.attributes	00000000 .ARM.attributes
00000000 l    d  .debug_info	00000000 .debug_info
00000000 l    d  .debug_abbrev	00000000 .debug_abbrev
00000000 l    d  .debug_aranges	00000000 .debug_aranges
00000000 l    d  .debug_ranges	00000000 .debug_ranges
00000000 l    d  .debug_macro	00000000 .debug_macro
00000000 l    d  .debug_line	00000000 .debug_line
00000000 l    d  .debug_str	00000000 .debug_str
00000000 l    d  .comment	00000000 .comment
00000000 l    d  .debug_frame	00000000 .debug_frame
00000000 l    d  .debug_loc	00000000 .debug_loc
00000000 l    df *ABS*	00000000 ./obj/startup_MKL36Z4.o
00000000 l    df *ABS*	00000000 crtstuff.c
0000a0d8 l     O .text	00000000 __EH_FRAME_BEGIN__
00006c10 l     F .text	00000000 __do_global_dtors_aux
20000400 l       .bss	00000001 completed.8654
0000a0fc l     O .fini_array	00000000 __do_global_dtors_aux_fini_array_entry
00006c38 l     F .text	00000000 frame_dummy
20000404 l       .bss	00000018 object.8659
0000a0f8 l     O .init_array	00000000 __frame_dummy_init_array_entry
00000000 l    df *ABS*	00000000 _udivsi3.o
00006ca8 l       .text	00000000 .udivsi3_skip_div0_test
00000000 l    df *ABS*	00000000 _divsi3.o
00006dbc l       .text	00000000 .divsi3_skip_div0_test
00000000 l    df *ABS*	00000000 _dvmd_tls.o
00000000 l    df *ABS*	00000000 _arm_cmpdf2.o
00000000 l    df *ABS*	00000000 _aeabi_uldivmod.o
00000000 l    df *ABS*	00000000 libgcc2.c
00000000 l    df *ABS*	00000000 libgcc2.c
00000000 l    df *ABS*	00000000 libgcc2.c
00000000 l    df *ABS*	00000000 eqdf2.c
00000000 l    df *ABS*	00000000 gedf2.c
00000000 l    df *ABS*	00000000 ledf2.c
00000000 l    df *ABS*	00000000 muldf3.c
00000000 l    df *ABS*	00000000 subdf3.c
00000000 l    df *ABS*	00000000 fixdfsi.c
00000000 l    df *ABS*	00000000 floatunsidf.c
00000000 l    df *ABS*	00000000 _clzsi2.o
00000000 l    df *ABS*	00000000 _clzdi2.o
00000000 l    df *ABS*	00000000 lib_a-strlen.o
00000000 l    df *ABS*	00000000 system_MKL36Z4.c
00000000 l    df *ABS*	00000000 main.c
00000000 l    df *ABS*	00000000 flash.c
00000000 l    df *ABS*	00000000 gpio.c
00000000 l    df *ABS*	00000000 wdog.c
00000000 l    df *ABS*	00000000 spi.c
00000000 l    df *ABS*	00000000 gec.c
00000000 l    df *ABS*	00000000 uart.c
00000000 l    df *ABS*	00000000 lcd.c
00009a10 l     O .text	00000600 nAsciiDot
000099a8 l     O .text	00000066 GB_16
00000000 l    df *ABS*	00000000 isr.c
00000000 l    df *ABS*	00000000 printf.c
00009068 l     F .text	0000002a printk_putc
00009092 l     F .text	00000084 printk_mknumstr
00009116 l     F .text	0000001e printk_pad_zero
00009134 l     F .text	0000001e printk_pad_space
00000000 l    df *ABS*	00000000 memcpy-stub.c
00000000 l    df *ABS*	00000000 memset.c
00000000 l    df *ABS*	00000000 d:/嵌入式技术app/ahl-gec-ide(4.11)/gcc/bin/../lib/gcc/arm-none-eabi/7.2.1/thumb/v6-m/crti.o
00000000 l    df *ABS*	00000000 d:/嵌入式技术app/ahl-gec-ide(4.11)/gcc/bin/../lib/gcc/arm-none-eabi/7.2.1/thumb/v6-m/crtn.o
00000000 l    df *ABS*	00000000 tm1637.c
00000000 l    df *ABS*	00000000 
0000a0fc l       .init_array	00000000 __init_array_end
0000a0f8 l       .init_array	00000000 __preinit_array_end
0000a0f8 l       .init_array	00000000 __init_array_start
0000a0f8 l       .init_array	00000000 __preinit_array_start
20000428 g       .heap	00000000 __HeapBase
00008b18 g     F .text	00000014 LCD_DrawPoint
00006fd4 g     F .text	00000012 .hidden __aeabi_dcmple
000083a4 g     F .text	00000008 flash_read_physical
0000724c g     F .text	00000078 .hidden __eqdf2
20000400 g       .data	00000000 __data_start__
00000100 g       *ABS*	00000000 STACK_SIZE
00006ca0  w    F .text	00000006 I2C0_IRQHandler
0000003e g       *ABS*	00000000 GEC_USER_SECTOR_END
00006ca0  w    F .text	00000006 HardFault_Handler
00006ca0  w    F .text	00000006 SysTick_Handler
000081c8 g     F .text	00000130 Test_RAY_HUMAN
2000041c g     O .bss	00000002 DIO_PIN
00006ca0  w    F .text	00000006 PendSV_Handler
00006ca0  w    F .text	00000006 NMI_Handler
0000a0f8 g       .ARM	00000000 __exidx_end
00006ca0  w    F .text	00000006 PORTC_PORTD_IRQHandler
00006ca0  w    F .text	00000006 I2C1_IRQHandler
00006ca0  w    F .text	00000006 UART1_IRQHandler
00008e70 g     F .text	00000108 LCD_aotu
000072c4 g     F .text	000000c8 .hidden __gtdf2
0000a100 g       .fini_array	00000000 __etext
00006ca0  w    F .text	00000006 DMA2_IRQHandler
00008f78 g     F .text	00000018 LCD_Dly_ms
00008ae2 g     F .text	00000036 LCD_Clear
00006ca0  w    F .text	00000006 TPM0_IRQHandler
00008a50 g     F .text	00000034 LCD_WR_REG
00006fa4 g     F .text	00000010 .hidden __aeabi_cdcmple
00006ca0  w    F .text	00000006 I2S0_IRQHandler
00006ca0  w    F .text	00000006 LLWU_IRQHandler
00008624 g     F .text	00000018 wdog_feed
0000001a g       *ABS*	00000000 GEC_USER_SECTOR_START
00006ca0  w    F .text	00000006 TSI0_IRQHandler
00009040 g     F .text	00000028 UART0_IRQHandler
0000986c g     F .text	00000012 memcpy
00006f94 g     F .text	00000020 .hidden __aeabi_cdrcmple
0000738c g     F .text	000000d0 .hidden __ltdf2
0000a0f8 g       .init_array	00000000 __DTOR_END__
00007010 g     F .text	0000003e .hidden __aeabi_uldivmod
00008e30 g     F .text	0000003e LCD_DrawSurface
00008b2c g     F .text	000000fc LCD_DrawCircle
00006ca0  w    F .text	00000006 ADC0_IRQHandler
00008c28 g     F .text	000000ae LCD_DrawLine
00006ca8 g     F .text	0000010a .hidden __udivsi3
20000400 g       .bss	00000000 __START_BSS
0000863c g     F .text	00000214 spi_init
00007050 g     F .text	0000003c .hidden __fixunsdfsi
2000041e g     O .bss	00000002 CLK_PIN
00008cd6 g     F .text	00000050 LCD_ShowCharactor
20000628 g       .heap	00000000 __HeapLimit
20000400 g       .bss	00000000 __bss_start__
00008410 g     F .text	00000068 flash_erase
0000803c g     F .text	00000064 .hidden __aeabi_ui2d
00006ca0  w    F .text	00000006 SPI1_IRQHandler
000070c8 g     F .text	00000182 .hidden __udivmoddi4
00006ca0  w    F .text	00000006 DefaultISR
00006fc0 g     F .text	00000012 .hidden __aeabi_dcmplt
0000a0f0 g       .ARM	00000000 __exidx_start
0000745c g     F .text	000004e4 .hidden __aeabi_dmul
00009160 g     F .text	00000188 printk_mkfloatstr
0000a0d8 g     F .text	00000000 _init
00006ca0  w    F .text	00000006 TPM2_IRQHandler
0000708c g     F .text	0000003c .hidden __aeabi_d2ulz
00006ca0  w    F .text	00000006 RTC_IRQHandler
00009944 g     O .text	00000014 PORT_ARR
00000400 g       *ABS*	00000000 MCU_SECTORSIZE
00006c58  w    F .text	00000048 Reset_Handler
00006ca0  w    F .text	00000006 LCD_IRQHandler
00008a14 g     F .text	0000003c LCD_WR_DATA
0000738c g     F .text	000000d0 .hidden __ledf2
200017ff g       *ABS*	00000000 GEC_USER_RAM_END
00009848 g     F .text	00000024 myprintf
00006ca0  w    F .text	00000006 RTC_Seconds_IRQHandler
00006dbc g     F .text	00000000 .hidden __aeabi_idiv
00006ca0  w    F .text	00000006 MCG_IRQHandler
00006ca0  w    F .text	00000006 UART2_IRQHandler
20000400 g       .data	00000000 __data_end__
0000a0f8 g       .init_array	00000000 __CTOR_LIST__
00000200 g       *ABS*	00000000 HEAP_SIZE
00006fe8 g     F .text	00000012 .hidden __aeabi_dcmpgt
000080a0 g     F .text	0000003c .hidden __clzsi2
20000424 g       .bss	00000000 __bss_end__
00008590 g     F .text	00000030 gpio_get
00006ca0  w    F .text	00000006 Reserved20_IRQHandler
00006ffc g     F .text	00000012 .hidden __aeabi_dcmpge
000083cc g     F .text	00000044 flash_cmd_launch
00007940 g     F .text	00000690 .hidden __aeabi_dsub
20000420 g     O .bss	00000004 component_fun
20000400 g       *ABS*	00000000 GEC_USER_RAM_START
000099a0 g     O .text	00000008 UART_ARR
00008850 g     F .text	00000034 spi_send1
00009152 g     F .text	0000000c out_char
000092e8 g     F .text	0000055e printk
00006f90  w    F .text	00000002 .hidden __aeabi_ldiv0
00008978 g     F .text	00000068 uart_re1
000089e0 g     F .text	00000034 LCD_WR_DATA8
00008f90 g     F .text	000000b0 LCD_Init
0000987e g     F .text	00000010 memset
00006800 g       .interrupts	000000c0 __isr_vector
000082f8 g     F .text	000000ac main
00006ca0  w    F .text	00000006 PIT_IRQHandler
00006ca8 g     F .text	00000000 .hidden __aeabi_uidiv
00006ca0  w    F .text	00000006 SVC_Handler
20000400 g       .data	00000000 __DATA_RAM
000084cc g     F .text	00000008 gpio_get_port_pin
20000428 g       .heap	00000000 __end__
00006dbc g     F .text	000001cc .hidden __divsi3
0000a0f8 g       .init_array	00000000 __CTOR_END__
00006ca0  w    F .text	00000006 DMA3_IRQHandler
0000a0f8 g       .init_array	00000000 __DTOR_LIST__
20000424 g       .bss	00000000 __END_BSS
00008104 g     F .text	000000c4 SystemInit
00006ca0  w    F .text	00000006 DMA0_IRQHandler
0000724c g     F .text	00000078 .hidden __nedf2
0000708c g     F .text	0000003c .hidden __fixunsdfdi
0000a0e4 g     F .text	00000000 _fini
00006ca0  w    F .text	00000006 DAC0_IRQHandler
00008a84 g     F .text	00000010 LCD_WR_REG_DATA
20001800 g       .stack	00000000 __StackTop
00008478 g     F .text	00000054 flash_write_physical
20000400 g       .mtb	00000000 _mtb_end
0000a100 g       *ABS*	00000000 __DATA_END
000083ac g     F .text	0000001e flash_isempty
00007050 g     F .text	0000003c .hidden __aeabi_d2uiz
00006ca0  w    F .text	00000006 TPM1_IRQHandler
00008884 g     F .text	0000008c Vectors_Init
20001800 g       *ABS*	00000000 __stack
00006db4 g     F .text	00000008 .hidden __aeabi_uidivmod
00006fb4 g     F .text	0000000c .hidden __aeabi_dcmpeq
00006ca0  w    F .text	00000006 LVD_LVW_IRQHandler
000085c0 g     F .text	00000064 gpio_pull
00006ca0  w    F .text	00000006 SPI0_IRQHandler
00006ca0  w    F .text	00000006 PORTA_IRQHandler
00006800 g       .interrupts	00000000 __VECTOR_TABLE
0000a100 g       .fini_array	00000000 __DATA_ROM
20001700 g       *ABS*	00000000 __StackLimit
00006ca0  w    F .text	00000006 FTFA_IRQHandler
00008a94 g     F .text	0000004e Address_set
00009930 g     O .text	00000014 GPIO_ARR
00007fd0 g     F .text	0000006c .hidden __aeabi_d2iz
20000400 g       .mtb	00000000 _mtb_start
00006ca0  w    F .text	00000006 Reserved40_IRQHandler
00006f90  w    F .text	00000002 .hidden __aeabi_idiv0
00008d28 g     F .text	00000108 LCD_ShowString
00006ca0  w    F .text	00000006 LPTMR0_IRQHandler
000080f4 g     F .text	0000000e strlen
00006fa4 g     F .text	00000010 .hidden __aeabi_cdcmpeq
000072c4 g     F .text	000000c8 .hidden __gedf2
0000891c g     F .text	0000005c uart_send1
00008910 g     F .text	0000000c uart_is_uartNo
000084d4 g     F .text	00000044 gpio_set
00008518 g     F .text	00000078 gpio_init
000080dc g     F .text	00000016 .hidden __clzdi2
00006ca0  w    F .text	00000006 CMP0_IRQHandler
00006f88 g     F .text	00000008 .hidden __aeabi_idivmod
00000000 g       *ABS*	00000000 MCU_FLASH_ADDR_START
00006ca0  w    F .text	00000006 DMA1_IRQHandler



Disassembly of section .text:

00006c10 <__do_global_dtors_aux>:
__do_global_dtors_aux():
    6c10:	b510      	push	{r4, lr}
    6c12:	4c06      	ldr	r4, [pc, #24]	; (6c2c <__do_global_dtors_aux+0x1c>)
    6c14:	7823      	ldrb	r3, [r4, #0]
    6c16:	2b00      	cmp	r3, #0
    6c18:	d107      	bne.n	6c2a <__do_global_dtors_aux+0x1a>
    6c1a:	4b05      	ldr	r3, [pc, #20]	; (6c30 <__do_global_dtors_aux+0x20>)
    6c1c:	2b00      	cmp	r3, #0
    6c1e:	d002      	beq.n	6c26 <__do_global_dtors_aux+0x16>
    6c20:	4804      	ldr	r0, [pc, #16]	; (6c34 <__do_global_dtors_aux+0x24>)
    6c22:	e000      	b.n	6c26 <__do_global_dtors_aux+0x16>
    6c24:	bf00      	nop
    6c26:	2301      	movs	r3, #1
    6c28:	7023      	strb	r3, [r4, #0]
    6c2a:	bd10      	pop	{r4, pc}
    6c2c:	20000400 	.word	0x20000400
    6c30:	00000000 	.word	0x00000000
    6c34:	0000a0d8 	.word	0x0000a0d8

00006c38 <frame_dummy>:
frame_dummy():
    6c38:	4b04      	ldr	r3, [pc, #16]	; (6c4c <frame_dummy+0x14>)
    6c3a:	b510      	push	{r4, lr}
    6c3c:	2b00      	cmp	r3, #0
    6c3e:	d003      	beq.n	6c48 <frame_dummy+0x10>
    6c40:	4903      	ldr	r1, [pc, #12]	; (6c50 <frame_dummy+0x18>)
    6c42:	4804      	ldr	r0, [pc, #16]	; (6c54 <frame_dummy+0x1c>)
    6c44:	e000      	b.n	6c48 <frame_dummy+0x10>
    6c46:	bf00      	nop
    6c48:	bd10      	pop	{r4, pc}
    6c4a:	46c0      	nop			; (mov r8, r8)
    6c4c:	00000000 	.word	0x00000000
    6c50:	20000404 	.word	0x20000404
    6c54:	0000a0d8 	.word	0x0000a0d8

00006c58 <Reset_Handler>:
Reset_Handler():
D:\app_for_qianrushi\exam\21\Debug/srcs/startup_MKL36Z4.S:118
    .align 2
    .globl   Reset_Handler
    .weak    Reset_Handler
    .type    Reset_Handler, %function
Reset_Handler:
    cpsid   i               /* Mask interrupts */
    6c58:	b672      	cpsid	i
D:\app_for_qianrushi\exam\21\Debug/srcs/startup_MKL36Z4.S:120
#ifndef __NO_SYSTEM_INIT
    bl SystemInit
    6c5a:	f001 fa53 	bl	8104 <SystemInit>
D:\app_for_qianrushi\exam\21\Debug/srcs/startup_MKL36Z4.S:122
#endif
    cpsie   i               /* Unmask interrupts */
    6c5e:	b662      	cpsie	i
D:\app_for_qianrushi\exam\21\Debug/srcs/startup_MKL36Z4.S:130
 *      linker script.
 *      __etext: End of code section, i.e., begin of data sections to copy from.
 *      __data_start__/__data_end__: RAM address range that data should be
 *      copied to. Both must be aligned to 4 bytes boundary.  */

    ldr    r1, =__etext
    6c60:	490a      	ldr	r1, [pc, #40]	; (6c8c <Reset_Handler+0x34>)
D:\app_for_qianrushi\exam\21\Debug/srcs/startup_MKL36Z4.S:131
    ldr    r2, =__data_start__
    6c62:	4a0b      	ldr	r2, [pc, #44]	; (6c90 <Reset_Handler+0x38>)
D:\app_for_qianrushi\exam\21\Debug/srcs/startup_MKL36Z4.S:132
    ldr    r3, =__data_end__
    6c64:	4b0b      	ldr	r3, [pc, #44]	; (6c94 <Reset_Handler+0x3c>)
D:\app_for_qianrushi\exam\21\Debug/srcs/startup_MKL36Z4.S:134

    subs    r3, r2
    6c66:	1a9b      	subs	r3, r3, r2
D:\app_for_qianrushi\exam\21\Debug/srcs/startup_MKL36Z4.S:135
    ble     .LC0
    6c68:	dd03      	ble.n	6c72 <Reset_Handler+0x1a>
D:\app_for_qianrushi\exam\21\Debug/srcs/startup_MKL36Z4.S:138

.LC1:
    subs    r3, 4
    6c6a:	3b04      	subs	r3, #4
D:\app_for_qianrushi\exam\21\Debug/srcs/startup_MKL36Z4.S:139
    ldr    r0, [r1,r3]
    6c6c:	58c8      	ldr	r0, [r1, r3]
D:\app_for_qianrushi\exam\21\Debug/srcs/startup_MKL36Z4.S:140
    str    r0, [r2,r3]
    6c6e:	50d0      	str	r0, [r2, r3]
D:\app_for_qianrushi\exam\21\Debug/srcs/startup_MKL36Z4.S:141
    bgt    .LC1
    6c70:	dcfb      	bgt.n	6c6a <Reset_Handler+0x12>
D:\app_for_qianrushi\exam\21\Debug/srcs/startup_MKL36Z4.S:154
 *     Loop to zero out BSS section, which uses following symbols
 *     in linker script:
 *      __bss_start__: start of BSS section. Must align to 4
 *      __bss_end__: end of BSS section. Must align to 4
 */
    ldr r1, =__bss_start__
    6c72:	4909      	ldr	r1, [pc, #36]	; (6c98 <Reset_Handler+0x40>)
D:\app_for_qianrushi\exam\21\Debug/srcs/startup_MKL36Z4.S:155
    ldr r2, =__bss_end__
    6c74:	4a09      	ldr	r2, [pc, #36]	; (6c9c <Reset_Handler+0x44>)
D:\app_for_qianrushi\exam\21\Debug/srcs/startup_MKL36Z4.S:157

    subs    r2, r1
    6c76:	1a52      	subs	r2, r2, r1
D:\app_for_qianrushi\exam\21\Debug/srcs/startup_MKL36Z4.S:158
    ble .LC3
    6c78:	dd03      	ble.n	6c82 <Reset_Handler+0x2a>
D:\app_for_qianrushi\exam\21\Debug/srcs/startup_MKL36Z4.S:160

    movs    r0, 0
    6c7a:	2000      	movs	r0, #0
D:\app_for_qianrushi\exam\21\Debug/srcs/startup_MKL36Z4.S:162
.LC2:
    str r0, [r1, r2]
    6c7c:	5088      	str	r0, [r1, r2]
D:\app_for_qianrushi\exam\21\Debug/srcs/startup_MKL36Z4.S:163
    subs    r2, 4
    6c7e:	3a04      	subs	r2, #4
D:\app_for_qianrushi\exam\21\Debug/srcs/startup_MKL36Z4.S:164
    bge .LC2
    6c80:	dafc      	bge.n	6c7c <Reset_Handler+0x24>
D:\app_for_qianrushi\exam\21\Debug/srcs/startup_MKL36Z4.S:173
#define __START _start
#endif


/*【User程序修改处1】*/
	bl	 Vectors_Init  
    6c82:	f001 fdff 	bl	8884 <Vectors_Init>
D:\app_for_qianrushi\exam\21\Debug/srcs/startup_MKL36Z4.S:175
  //  bl    __START
   bl main
    6c86:	f001 fb37 	bl	82f8 <main>
    6c8a:	0000      	.short	0x0000
D:\app_for_qianrushi\exam\21\Debug/srcs/startup_MKL36Z4.S:130
    ldr    r1, =__etext
    6c8c:	0000a100 	.word	0x0000a100
D:\app_for_qianrushi\exam\21\Debug/srcs/startup_MKL36Z4.S:131
    ldr    r2, =__data_start__
    6c90:	20000400 	.word	0x20000400
D:\app_for_qianrushi\exam\21\Debug/srcs/startup_MKL36Z4.S:132
    ldr    r3, =__data_end__
    6c94:	20000400 	.word	0x20000400
D:\app_for_qianrushi\exam\21\Debug/srcs/startup_MKL36Z4.S:154
    ldr r1, =__bss_start__
    6c98:	20000400 	.word	0x20000400
D:\app_for_qianrushi\exam\21\Debug/srcs/startup_MKL36Z4.S:155
    ldr r2, =__bss_end__
    6c9c:	20000424 	.word	0x20000424

00006ca0 <ADC0_IRQHandler>:
DMA1_IRQHandler():
D:\app_for_qianrushi\exam\21\Debug/srcs/startup_MKL36Z4.S:186
    .weak DefaultISR
    .type DefaultISR, %function
DefaultISR:    
    //ldr	r0, =DefaultISR   //误中断，进入无限循环
    //bx r0
       push  {lr}        //【20200326】WYH改，误中断，回原处
    6ca0:	b500      	push	{lr}
D:\app_for_qianrushi\exam\21\Debug/srcs/startup_MKL36Z4.S:187
       nop
    6ca2:	46c0      	nop			; (mov r8, r8)
D:\app_for_qianrushi\exam\21\Debug/srcs/startup_MKL36Z4.S:188
       pop   {pc}
    6ca4:	bd00      	pop	{pc}
    6ca6:	46c0      	nop			; (mov r8, r8)

00006ca8 <__udivsi3>:
__aeabi_uidiv():
    6ca8:	2200      	movs	r2, #0
    6caa:	0843      	lsrs	r3, r0, #1
    6cac:	428b      	cmp	r3, r1
    6cae:	d374      	bcc.n	6d9a <__udivsi3+0xf2>
    6cb0:	0903      	lsrs	r3, r0, #4
    6cb2:	428b      	cmp	r3, r1
    6cb4:	d35f      	bcc.n	6d76 <__udivsi3+0xce>
    6cb6:	0a03      	lsrs	r3, r0, #8
    6cb8:	428b      	cmp	r3, r1
    6cba:	d344      	bcc.n	6d46 <__udivsi3+0x9e>
    6cbc:	0b03      	lsrs	r3, r0, #12
    6cbe:	428b      	cmp	r3, r1
    6cc0:	d328      	bcc.n	6d14 <__udivsi3+0x6c>
    6cc2:	0c03      	lsrs	r3, r0, #16
    6cc4:	428b      	cmp	r3, r1
    6cc6:	d30d      	bcc.n	6ce4 <__udivsi3+0x3c>
    6cc8:	22ff      	movs	r2, #255	; 0xff
    6cca:	0209      	lsls	r1, r1, #8
    6ccc:	ba12      	rev	r2, r2
    6cce:	0c03      	lsrs	r3, r0, #16
    6cd0:	428b      	cmp	r3, r1
    6cd2:	d302      	bcc.n	6cda <__udivsi3+0x32>
    6cd4:	1212      	asrs	r2, r2, #8
    6cd6:	0209      	lsls	r1, r1, #8
    6cd8:	d065      	beq.n	6da6 <__udivsi3+0xfe>
    6cda:	0b03      	lsrs	r3, r0, #12
    6cdc:	428b      	cmp	r3, r1
    6cde:	d319      	bcc.n	6d14 <__udivsi3+0x6c>
    6ce0:	e000      	b.n	6ce4 <__udivsi3+0x3c>
    6ce2:	0a09      	lsrs	r1, r1, #8
    6ce4:	0bc3      	lsrs	r3, r0, #15
    6ce6:	428b      	cmp	r3, r1
    6ce8:	d301      	bcc.n	6cee <__udivsi3+0x46>
    6cea:	03cb      	lsls	r3, r1, #15
    6cec:	1ac0      	subs	r0, r0, r3
    6cee:	4152      	adcs	r2, r2
    6cf0:	0b83      	lsrs	r3, r0, #14
    6cf2:	428b      	cmp	r3, r1
    6cf4:	d301      	bcc.n	6cfa <__udivsi3+0x52>
    6cf6:	038b      	lsls	r3, r1, #14
    6cf8:	1ac0      	subs	r0, r0, r3
    6cfa:	4152      	adcs	r2, r2
    6cfc:	0b43      	lsrs	r3, r0, #13
    6cfe:	428b      	cmp	r3, r1
    6d00:	d301      	bcc.n	6d06 <__udivsi3+0x5e>
    6d02:	034b      	lsls	r3, r1, #13
    6d04:	1ac0      	subs	r0, r0, r3
    6d06:	4152      	adcs	r2, r2
    6d08:	0b03      	lsrs	r3, r0, #12
    6d0a:	428b      	cmp	r3, r1
    6d0c:	d301      	bcc.n	6d12 <__udivsi3+0x6a>
    6d0e:	030b      	lsls	r3, r1, #12
    6d10:	1ac0      	subs	r0, r0, r3
    6d12:	4152      	adcs	r2, r2
    6d14:	0ac3      	lsrs	r3, r0, #11
    6d16:	428b      	cmp	r3, r1
    6d18:	d301      	bcc.n	6d1e <__udivsi3+0x76>
    6d1a:	02cb      	lsls	r3, r1, #11
    6d1c:	1ac0      	subs	r0, r0, r3
    6d1e:	4152      	adcs	r2, r2
    6d20:	0a83      	lsrs	r3, r0, #10
    6d22:	428b      	cmp	r3, r1
    6d24:	d301      	bcc.n	6d2a <__udivsi3+0x82>
    6d26:	028b      	lsls	r3, r1, #10
    6d28:	1ac0      	subs	r0, r0, r3
    6d2a:	4152      	adcs	r2, r2
    6d2c:	0a43      	lsrs	r3, r0, #9
    6d2e:	428b      	cmp	r3, r1
    6d30:	d301      	bcc.n	6d36 <__udivsi3+0x8e>
    6d32:	024b      	lsls	r3, r1, #9
    6d34:	1ac0      	subs	r0, r0, r3
    6d36:	4152      	adcs	r2, r2
    6d38:	0a03      	lsrs	r3, r0, #8
    6d3a:	428b      	cmp	r3, r1
    6d3c:	d301      	bcc.n	6d42 <__udivsi3+0x9a>
    6d3e:	020b      	lsls	r3, r1, #8
    6d40:	1ac0      	subs	r0, r0, r3
    6d42:	4152      	adcs	r2, r2
    6d44:	d2cd      	bcs.n	6ce2 <__udivsi3+0x3a>
    6d46:	09c3      	lsrs	r3, r0, #7
    6d48:	428b      	cmp	r3, r1
    6d4a:	d301      	bcc.n	6d50 <__udivsi3+0xa8>
    6d4c:	01cb      	lsls	r3, r1, #7
    6d4e:	1ac0      	subs	r0, r0, r3
    6d50:	4152      	adcs	r2, r2
    6d52:	0983      	lsrs	r3, r0, #6
    6d54:	428b      	cmp	r3, r1
    6d56:	d301      	bcc.n	6d5c <__udivsi3+0xb4>
    6d58:	018b      	lsls	r3, r1, #6
    6d5a:	1ac0      	subs	r0, r0, r3
    6d5c:	4152      	adcs	r2, r2
    6d5e:	0943      	lsrs	r3, r0, #5
    6d60:	428b      	cmp	r3, r1
    6d62:	d301      	bcc.n	6d68 <__udivsi3+0xc0>
    6d64:	014b      	lsls	r3, r1, #5
    6d66:	1ac0      	subs	r0, r0, r3
    6d68:	4152      	adcs	r2, r2
    6d6a:	0903      	lsrs	r3, r0, #4
    6d6c:	428b      	cmp	r3, r1
    6d6e:	d301      	bcc.n	6d74 <__udivsi3+0xcc>
    6d70:	010b      	lsls	r3, r1, #4
    6d72:	1ac0      	subs	r0, r0, r3
    6d74:	4152      	adcs	r2, r2
    6d76:	08c3      	lsrs	r3, r0, #3
    6d78:	428b      	cmp	r3, r1
    6d7a:	d301      	bcc.n	6d80 <__udivsi3+0xd8>
    6d7c:	00cb      	lsls	r3, r1, #3
    6d7e:	1ac0      	subs	r0, r0, r3
    6d80:	4152      	adcs	r2, r2
    6d82:	0883      	lsrs	r3, r0, #2
    6d84:	428b      	cmp	r3, r1
    6d86:	d301      	bcc.n	6d8c <__udivsi3+0xe4>
    6d88:	008b      	lsls	r3, r1, #2
    6d8a:	1ac0      	subs	r0, r0, r3
    6d8c:	4152      	adcs	r2, r2
    6d8e:	0843      	lsrs	r3, r0, #1
    6d90:	428b      	cmp	r3, r1
    6d92:	d301      	bcc.n	6d98 <__udivsi3+0xf0>
    6d94:	004b      	lsls	r3, r1, #1
    6d96:	1ac0      	subs	r0, r0, r3
    6d98:	4152      	adcs	r2, r2
    6d9a:	1a41      	subs	r1, r0, r1
    6d9c:	d200      	bcs.n	6da0 <__udivsi3+0xf8>
    6d9e:	4601      	mov	r1, r0
    6da0:	4152      	adcs	r2, r2
    6da2:	4610      	mov	r0, r2
    6da4:	4770      	bx	lr
    6da6:	e7ff      	b.n	6da8 <__udivsi3+0x100>
    6da8:	b501      	push	{r0, lr}
    6daa:	2000      	movs	r0, #0
    6dac:	f000 f8f0 	bl	6f90 <__aeabi_idiv0>
    6db0:	bd02      	pop	{r1, pc}
    6db2:	46c0      	nop			; (mov r8, r8)

00006db4 <__aeabi_uidivmod>:
__aeabi_uidivmod():
    6db4:	2900      	cmp	r1, #0
    6db6:	d0f7      	beq.n	6da8 <__udivsi3+0x100>
    6db8:	e776      	b.n	6ca8 <__udivsi3>
    6dba:	4770      	bx	lr

00006dbc <__divsi3>:
__divsi3():
    6dbc:	4603      	mov	r3, r0
    6dbe:	430b      	orrs	r3, r1
    6dc0:	d47f      	bmi.n	6ec2 <__divsi3+0x106>
    6dc2:	2200      	movs	r2, #0
    6dc4:	0843      	lsrs	r3, r0, #1
    6dc6:	428b      	cmp	r3, r1
    6dc8:	d374      	bcc.n	6eb4 <__divsi3+0xf8>
    6dca:	0903      	lsrs	r3, r0, #4
    6dcc:	428b      	cmp	r3, r1
    6dce:	d35f      	bcc.n	6e90 <__divsi3+0xd4>
    6dd0:	0a03      	lsrs	r3, r0, #8
    6dd2:	428b      	cmp	r3, r1
    6dd4:	d344      	bcc.n	6e60 <__divsi3+0xa4>
    6dd6:	0b03      	lsrs	r3, r0, #12
    6dd8:	428b      	cmp	r3, r1
    6dda:	d328      	bcc.n	6e2e <__divsi3+0x72>
    6ddc:	0c03      	lsrs	r3, r0, #16
    6dde:	428b      	cmp	r3, r1
    6de0:	d30d      	bcc.n	6dfe <__divsi3+0x42>
    6de2:	22ff      	movs	r2, #255	; 0xff
    6de4:	0209      	lsls	r1, r1, #8
    6de6:	ba12      	rev	r2, r2
    6de8:	0c03      	lsrs	r3, r0, #16
    6dea:	428b      	cmp	r3, r1
    6dec:	d302      	bcc.n	6df4 <__divsi3+0x38>
    6dee:	1212      	asrs	r2, r2, #8
    6df0:	0209      	lsls	r1, r1, #8
    6df2:	d065      	beq.n	6ec0 <__divsi3+0x104>
    6df4:	0b03      	lsrs	r3, r0, #12
    6df6:	428b      	cmp	r3, r1
    6df8:	d319      	bcc.n	6e2e <__divsi3+0x72>
    6dfa:	e000      	b.n	6dfe <__divsi3+0x42>
    6dfc:	0a09      	lsrs	r1, r1, #8
    6dfe:	0bc3      	lsrs	r3, r0, #15
    6e00:	428b      	cmp	r3, r1
    6e02:	d301      	bcc.n	6e08 <__divsi3+0x4c>
    6e04:	03cb      	lsls	r3, r1, #15
    6e06:	1ac0      	subs	r0, r0, r3
    6e08:	4152      	adcs	r2, r2
    6e0a:	0b83      	lsrs	r3, r0, #14
    6e0c:	428b      	cmp	r3, r1
    6e0e:	d301      	bcc.n	6e14 <__divsi3+0x58>
    6e10:	038b      	lsls	r3, r1, #14
    6e12:	1ac0      	subs	r0, r0, r3
    6e14:	4152      	adcs	r2, r2
    6e16:	0b43      	lsrs	r3, r0, #13
    6e18:	428b      	cmp	r3, r1
    6e1a:	d301      	bcc.n	6e20 <__divsi3+0x64>
    6e1c:	034b      	lsls	r3, r1, #13
    6e1e:	1ac0      	subs	r0, r0, r3
    6e20:	4152      	adcs	r2, r2
    6e22:	0b03      	lsrs	r3, r0, #12
    6e24:	428b      	cmp	r3, r1
    6e26:	d301      	bcc.n	6e2c <__divsi3+0x70>
    6e28:	030b      	lsls	r3, r1, #12
    6e2a:	1ac0      	subs	r0, r0, r3
    6e2c:	4152      	adcs	r2, r2
    6e2e:	0ac3      	lsrs	r3, r0, #11
    6e30:	428b      	cmp	r3, r1
    6e32:	d301      	bcc.n	6e38 <__divsi3+0x7c>
    6e34:	02cb      	lsls	r3, r1, #11
    6e36:	1ac0      	subs	r0, r0, r3
    6e38:	4152      	adcs	r2, r2
    6e3a:	0a83      	lsrs	r3, r0, #10
    6e3c:	428b      	cmp	r3, r1
    6e3e:	d301      	bcc.n	6e44 <__divsi3+0x88>
    6e40:	028b      	lsls	r3, r1, #10
    6e42:	1ac0      	subs	r0, r0, r3
    6e44:	4152      	adcs	r2, r2
    6e46:	0a43      	lsrs	r3, r0, #9
    6e48:	428b      	cmp	r3, r1
    6e4a:	d301      	bcc.n	6e50 <__divsi3+0x94>
    6e4c:	024b      	lsls	r3, r1, #9
    6e4e:	1ac0      	subs	r0, r0, r3
    6e50:	4152      	adcs	r2, r2
    6e52:	0a03      	lsrs	r3, r0, #8
    6e54:	428b      	cmp	r3, r1
    6e56:	d301      	bcc.n	6e5c <__divsi3+0xa0>
    6e58:	020b      	lsls	r3, r1, #8
    6e5a:	1ac0      	subs	r0, r0, r3
    6e5c:	4152      	adcs	r2, r2
    6e5e:	d2cd      	bcs.n	6dfc <__divsi3+0x40>
    6e60:	09c3      	lsrs	r3, r0, #7
    6e62:	428b      	cmp	r3, r1
    6e64:	d301      	bcc.n	6e6a <__divsi3+0xae>
    6e66:	01cb      	lsls	r3, r1, #7
    6e68:	1ac0      	subs	r0, r0, r3
    6e6a:	4152      	adcs	r2, r2
    6e6c:	0983      	lsrs	r3, r0, #6
    6e6e:	428b      	cmp	r3, r1
    6e70:	d301      	bcc.n	6e76 <__divsi3+0xba>
    6e72:	018b      	lsls	r3, r1, #6
    6e74:	1ac0      	subs	r0, r0, r3
    6e76:	4152      	adcs	r2, r2
    6e78:	0943      	lsrs	r3, r0, #5
    6e7a:	428b      	cmp	r3, r1
    6e7c:	d301      	bcc.n	6e82 <__divsi3+0xc6>
    6e7e:	014b      	lsls	r3, r1, #5
    6e80:	1ac0      	subs	r0, r0, r3
    6e82:	4152      	adcs	r2, r2
    6e84:	0903      	lsrs	r3, r0, #4
    6e86:	428b      	cmp	r3, r1
    6e88:	d301      	bcc.n	6e8e <__divsi3+0xd2>
    6e8a:	010b      	lsls	r3, r1, #4
    6e8c:	1ac0      	subs	r0, r0, r3
    6e8e:	4152      	adcs	r2, r2
    6e90:	08c3      	lsrs	r3, r0, #3
    6e92:	428b      	cmp	r3, r1
    6e94:	d301      	bcc.n	6e9a <__divsi3+0xde>
    6e96:	00cb      	lsls	r3, r1, #3
    6e98:	1ac0      	subs	r0, r0, r3
    6e9a:	4152      	adcs	r2, r2
    6e9c:	0883      	lsrs	r3, r0, #2
    6e9e:	428b      	cmp	r3, r1
    6ea0:	d301      	bcc.n	6ea6 <__divsi3+0xea>
    6ea2:	008b      	lsls	r3, r1, #2
    6ea4:	1ac0      	subs	r0, r0, r3
    6ea6:	4152      	adcs	r2, r2
    6ea8:	0843      	lsrs	r3, r0, #1
    6eaa:	428b      	cmp	r3, r1
    6eac:	d301      	bcc.n	6eb2 <__divsi3+0xf6>
    6eae:	004b      	lsls	r3, r1, #1
    6eb0:	1ac0      	subs	r0, r0, r3
    6eb2:	4152      	adcs	r2, r2
    6eb4:	1a41      	subs	r1, r0, r1
    6eb6:	d200      	bcs.n	6eba <__divsi3+0xfe>
    6eb8:	4601      	mov	r1, r0
    6eba:	4152      	adcs	r2, r2
    6ebc:	4610      	mov	r0, r2
    6ebe:	4770      	bx	lr
    6ec0:	e05d      	b.n	6f7e <__divsi3+0x1c2>
    6ec2:	0fca      	lsrs	r2, r1, #31
    6ec4:	d000      	beq.n	6ec8 <__divsi3+0x10c>
    6ec6:	4249      	negs	r1, r1
    6ec8:	1003      	asrs	r3, r0, #32
    6eca:	d300      	bcc.n	6ece <__divsi3+0x112>
    6ecc:	4240      	negs	r0, r0
    6ece:	4053      	eors	r3, r2
    6ed0:	2200      	movs	r2, #0
    6ed2:	469c      	mov	ip, r3
    6ed4:	0903      	lsrs	r3, r0, #4
    6ed6:	428b      	cmp	r3, r1
    6ed8:	d32d      	bcc.n	6f36 <__divsi3+0x17a>
    6eda:	0a03      	lsrs	r3, r0, #8
    6edc:	428b      	cmp	r3, r1
    6ede:	d312      	bcc.n	6f06 <__divsi3+0x14a>
    6ee0:	22fc      	movs	r2, #252	; 0xfc
    6ee2:	0189      	lsls	r1, r1, #6
    6ee4:	ba12      	rev	r2, r2
    6ee6:	0a03      	lsrs	r3, r0, #8
    6ee8:	428b      	cmp	r3, r1
    6eea:	d30c      	bcc.n	6f06 <__divsi3+0x14a>
    6eec:	0189      	lsls	r1, r1, #6
    6eee:	1192      	asrs	r2, r2, #6
    6ef0:	428b      	cmp	r3, r1
    6ef2:	d308      	bcc.n	6f06 <__divsi3+0x14a>
    6ef4:	0189      	lsls	r1, r1, #6
    6ef6:	1192      	asrs	r2, r2, #6
    6ef8:	428b      	cmp	r3, r1
    6efa:	d304      	bcc.n	6f06 <__divsi3+0x14a>
    6efc:	0189      	lsls	r1, r1, #6
    6efe:	d03a      	beq.n	6f76 <__divsi3+0x1ba>
    6f00:	1192      	asrs	r2, r2, #6
    6f02:	e000      	b.n	6f06 <__divsi3+0x14a>
    6f04:	0989      	lsrs	r1, r1, #6
    6f06:	09c3      	lsrs	r3, r0, #7
    6f08:	428b      	cmp	r3, r1
    6f0a:	d301      	bcc.n	6f10 <__divsi3+0x154>
    6f0c:	01cb      	lsls	r3, r1, #7
    6f0e:	1ac0      	subs	r0, r0, r3
    6f10:	4152      	adcs	r2, r2
    6f12:	0983      	lsrs	r3, r0, #6
    6f14:	428b      	cmp	r3, r1
    6f16:	d301      	bcc.n	6f1c <__divsi3+0x160>
    6f18:	018b      	lsls	r3, r1, #6
    6f1a:	1ac0      	subs	r0, r0, r3
    6f1c:	4152      	adcs	r2, r2
    6f1e:	0943      	lsrs	r3, r0, #5
    6f20:	428b      	cmp	r3, r1
    6f22:	d301      	bcc.n	6f28 <__divsi3+0x16c>
    6f24:	014b      	lsls	r3, r1, #5
    6f26:	1ac0      	subs	r0, r0, r3
    6f28:	4152      	adcs	r2, r2
    6f2a:	0903      	lsrs	r3, r0, #4
    6f2c:	428b      	cmp	r3, r1
    6f2e:	d301      	bcc.n	6f34 <__divsi3+0x178>
    6f30:	010b      	lsls	r3, r1, #4
    6f32:	1ac0      	subs	r0, r0, r3
    6f34:	4152      	adcs	r2, r2
    6f36:	08c3      	lsrs	r3, r0, #3
    6f38:	428b      	cmp	r3, r1
    6f3a:	d301      	bcc.n	6f40 <__divsi3+0x184>
    6f3c:	00cb      	lsls	r3, r1, #3
    6f3e:	1ac0      	subs	r0, r0, r3
    6f40:	4152      	adcs	r2, r2
    6f42:	0883      	lsrs	r3, r0, #2
    6f44:	428b      	cmp	r3, r1
    6f46:	d301      	bcc.n	6f4c <__divsi3+0x190>
    6f48:	008b      	lsls	r3, r1, #2
    6f4a:	1ac0      	subs	r0, r0, r3
    6f4c:	4152      	adcs	r2, r2
    6f4e:	d2d9      	bcs.n	6f04 <__divsi3+0x148>
    6f50:	0843      	lsrs	r3, r0, #1
    6f52:	428b      	cmp	r3, r1
    6f54:	d301      	bcc.n	6f5a <__divsi3+0x19e>
    6f56:	004b      	lsls	r3, r1, #1
    6f58:	1ac0      	subs	r0, r0, r3
    6f5a:	4152      	adcs	r2, r2
    6f5c:	1a41      	subs	r1, r0, r1
    6f5e:	d200      	bcs.n	6f62 <__divsi3+0x1a6>
    6f60:	4601      	mov	r1, r0
    6f62:	4663      	mov	r3, ip
    6f64:	4152      	adcs	r2, r2
    6f66:	105b      	asrs	r3, r3, #1
    6f68:	4610      	mov	r0, r2
    6f6a:	d301      	bcc.n	6f70 <__divsi3+0x1b4>
    6f6c:	4240      	negs	r0, r0
    6f6e:	2b00      	cmp	r3, #0
    6f70:	d500      	bpl.n	6f74 <__divsi3+0x1b8>
    6f72:	4249      	negs	r1, r1
    6f74:	4770      	bx	lr
    6f76:	4663      	mov	r3, ip
    6f78:	105b      	asrs	r3, r3, #1
    6f7a:	d300      	bcc.n	6f7e <__divsi3+0x1c2>
    6f7c:	4240      	negs	r0, r0
    6f7e:	b501      	push	{r0, lr}
    6f80:	2000      	movs	r0, #0
    6f82:	f000 f805 	bl	6f90 <__aeabi_idiv0>
    6f86:	bd02      	pop	{r1, pc}

00006f88 <__aeabi_idivmod>:
__aeabi_idivmod():
    6f88:	2900      	cmp	r1, #0
    6f8a:	d0f8      	beq.n	6f7e <__divsi3+0x1c2>
    6f8c:	e716      	b.n	6dbc <__divsi3>
    6f8e:	4770      	bx	lr

00006f90 <__aeabi_idiv0>:
__aeabi_idiv0():
    6f90:	4770      	bx	lr
    6f92:	46c0      	nop			; (mov r8, r8)

00006f94 <__aeabi_cdrcmple>:
__aeabi_cdrcmple():
    6f94:	4684      	mov	ip, r0
    6f96:	1c10      	adds	r0, r2, #0
    6f98:	4662      	mov	r2, ip
    6f9a:	468c      	mov	ip, r1
    6f9c:	1c19      	adds	r1, r3, #0
    6f9e:	4663      	mov	r3, ip
    6fa0:	e000      	b.n	6fa4 <__aeabi_cdcmpeq>
    6fa2:	46c0      	nop			; (mov r8, r8)

00006fa4 <__aeabi_cdcmpeq>:
__aeabi_cdcmpeq():
    6fa4:	b51f      	push	{r0, r1, r2, r3, r4, lr}
    6fa6:	f000 f9f1 	bl	738c <__ledf2>
    6faa:	2800      	cmp	r0, #0
    6fac:	d401      	bmi.n	6fb2 <__aeabi_cdcmpeq+0xe>
    6fae:	2100      	movs	r1, #0
    6fb0:	42c8      	cmn	r0, r1
    6fb2:	bd1f      	pop	{r0, r1, r2, r3, r4, pc}

00006fb4 <__aeabi_dcmpeq>:
__aeabi_dcmpeq():
    6fb4:	b510      	push	{r4, lr}
    6fb6:	f000 f949 	bl	724c <__eqdf2>
    6fba:	4240      	negs	r0, r0
    6fbc:	3001      	adds	r0, #1
    6fbe:	bd10      	pop	{r4, pc}

00006fc0 <__aeabi_dcmplt>:
__aeabi_dcmplt():
    6fc0:	b510      	push	{r4, lr}
    6fc2:	f000 f9e3 	bl	738c <__ledf2>
    6fc6:	2800      	cmp	r0, #0
    6fc8:	db01      	blt.n	6fce <__aeabi_dcmplt+0xe>
    6fca:	2000      	movs	r0, #0
    6fcc:	bd10      	pop	{r4, pc}
    6fce:	2001      	movs	r0, #1
    6fd0:	bd10      	pop	{r4, pc}
    6fd2:	46c0      	nop			; (mov r8, r8)

00006fd4 <__aeabi_dcmple>:
__aeabi_dcmple():
    6fd4:	b510      	push	{r4, lr}
    6fd6:	f000 f9d9 	bl	738c <__ledf2>
    6fda:	2800      	cmp	r0, #0
    6fdc:	dd01      	ble.n	6fe2 <__aeabi_dcmple+0xe>
    6fde:	2000      	movs	r0, #0
    6fe0:	bd10      	pop	{r4, pc}
    6fe2:	2001      	movs	r0, #1
    6fe4:	bd10      	pop	{r4, pc}
    6fe6:	46c0      	nop			; (mov r8, r8)

00006fe8 <__aeabi_dcmpgt>:
__aeabi_dcmpgt():
    6fe8:	b510      	push	{r4, lr}
    6fea:	f000 f96b 	bl	72c4 <__gedf2>
    6fee:	2800      	cmp	r0, #0
    6ff0:	dc01      	bgt.n	6ff6 <__aeabi_dcmpgt+0xe>
    6ff2:	2000      	movs	r0, #0
    6ff4:	bd10      	pop	{r4, pc}
    6ff6:	2001      	movs	r0, #1
    6ff8:	bd10      	pop	{r4, pc}
    6ffa:	46c0      	nop			; (mov r8, r8)

00006ffc <__aeabi_dcmpge>:
__aeabi_dcmpge():
    6ffc:	b510      	push	{r4, lr}
    6ffe:	f000 f961 	bl	72c4 <__gedf2>
    7002:	2800      	cmp	r0, #0
    7004:	da01      	bge.n	700a <__aeabi_dcmpge+0xe>
    7006:	2000      	movs	r0, #0
    7008:	bd10      	pop	{r4, pc}
    700a:	2001      	movs	r0, #1
    700c:	bd10      	pop	{r4, pc}
    700e:	46c0      	nop			; (mov r8, r8)

00007010 <__aeabi_uldivmod>:
__aeabi_uldivmod():
    7010:	2b00      	cmp	r3, #0
    7012:	d111      	bne.n	7038 <__aeabi_uldivmod+0x28>
    7014:	2a00      	cmp	r2, #0
    7016:	d10f      	bne.n	7038 <__aeabi_uldivmod+0x28>
    7018:	2900      	cmp	r1, #0
    701a:	d100      	bne.n	701e <__aeabi_uldivmod+0xe>
    701c:	2800      	cmp	r0, #0
    701e:	d002      	beq.n	7026 <__aeabi_uldivmod+0x16>
    7020:	2100      	movs	r1, #0
    7022:	43c9      	mvns	r1, r1
    7024:	1c08      	adds	r0, r1, #0
    7026:	b407      	push	{r0, r1, r2}
    7028:	4802      	ldr	r0, [pc, #8]	; (7034 <__aeabi_uldivmod+0x24>)
    702a:	a102      	add	r1, pc, #8	; (adr r1, 7034 <__aeabi_uldivmod+0x24>)
    702c:	1840      	adds	r0, r0, r1
    702e:	9002      	str	r0, [sp, #8]
    7030:	bd03      	pop	{r0, r1, pc}
    7032:	46c0      	nop			; (mov r8, r8)
    7034:	ffffff5d 	.word	0xffffff5d
    7038:	b403      	push	{r0, r1}
    703a:	4668      	mov	r0, sp
    703c:	b501      	push	{r0, lr}
    703e:	9802      	ldr	r0, [sp, #8]
    7040:	f000 f842 	bl	70c8 <__udivmoddi4>
    7044:	9b01      	ldr	r3, [sp, #4]
    7046:	469e      	mov	lr, r3
    7048:	b002      	add	sp, #8
    704a:	bc0c      	pop	{r2, r3}
    704c:	4770      	bx	lr
    704e:	46c0      	nop			; (mov r8, r8)

00007050 <__aeabi_d2uiz>:
__aeabi_d2uiz():
    7050:	b570      	push	{r4, r5, r6, lr}
    7052:	2200      	movs	r2, #0
    7054:	4b0c      	ldr	r3, [pc, #48]	; (7088 <__aeabi_d2uiz+0x38>)
    7056:	0004      	movs	r4, r0
    7058:	000d      	movs	r5, r1
    705a:	f7ff ffcf 	bl	6ffc <__aeabi_dcmpge>
    705e:	2800      	cmp	r0, #0
    7060:	d104      	bne.n	706c <__aeabi_d2uiz+0x1c>
    7062:	0020      	movs	r0, r4
    7064:	0029      	movs	r1, r5
    7066:	f000 ffb3 	bl	7fd0 <__aeabi_d2iz>
    706a:	bd70      	pop	{r4, r5, r6, pc}
    706c:	4b06      	ldr	r3, [pc, #24]	; (7088 <__aeabi_d2uiz+0x38>)
    706e:	2200      	movs	r2, #0
    7070:	0020      	movs	r0, r4
    7072:	0029      	movs	r1, r5
    7074:	f000 fc64 	bl	7940 <__aeabi_dsub>
    7078:	f000 ffaa 	bl	7fd0 <__aeabi_d2iz>
    707c:	2380      	movs	r3, #128	; 0x80
    707e:	061b      	lsls	r3, r3, #24
    7080:	469c      	mov	ip, r3
    7082:	4460      	add	r0, ip
    7084:	e7f1      	b.n	706a <__aeabi_d2uiz+0x1a>
    7086:	46c0      	nop			; (mov r8, r8)
    7088:	41e00000 	.word	0x41e00000

0000708c <__aeabi_d2ulz>:
__fixunsdfdi():
    708c:	b570      	push	{r4, r5, r6, lr}
    708e:	2200      	movs	r2, #0
    7090:	4b0b      	ldr	r3, [pc, #44]	; (70c0 <__aeabi_d2ulz+0x34>)
    7092:	000d      	movs	r5, r1
    7094:	0004      	movs	r4, r0
    7096:	f000 f9e1 	bl	745c <__aeabi_dmul>
    709a:	f7ff ffd9 	bl	7050 <__aeabi_d2uiz>
    709e:	0006      	movs	r6, r0
    70a0:	f000 ffcc 	bl	803c <__aeabi_ui2d>
    70a4:	2200      	movs	r2, #0
    70a6:	4b07      	ldr	r3, [pc, #28]	; (70c4 <__aeabi_d2ulz+0x38>)
    70a8:	f000 f9d8 	bl	745c <__aeabi_dmul>
    70ac:	0002      	movs	r2, r0
    70ae:	000b      	movs	r3, r1
    70b0:	0020      	movs	r0, r4
    70b2:	0029      	movs	r1, r5
    70b4:	f000 fc44 	bl	7940 <__aeabi_dsub>
    70b8:	f7ff ffca 	bl	7050 <__aeabi_d2uiz>
    70bc:	0031      	movs	r1, r6
    70be:	bd70      	pop	{r4, r5, r6, pc}
    70c0:	3df00000 	.word	0x3df00000
    70c4:	41f00000 	.word	0x41f00000

000070c8 <__udivmoddi4>:
__udivmoddi4():
    70c8:	b5f0      	push	{r4, r5, r6, r7, lr}
    70ca:	464f      	mov	r7, r9
    70cc:	4646      	mov	r6, r8
    70ce:	46d6      	mov	lr, sl
    70d0:	b5c0      	push	{r6, r7, lr}
    70d2:	0004      	movs	r4, r0
    70d4:	b082      	sub	sp, #8
    70d6:	000d      	movs	r5, r1
    70d8:	4691      	mov	r9, r2
    70da:	4698      	mov	r8, r3
    70dc:	428b      	cmp	r3, r1
    70de:	d82f      	bhi.n	7140 <__udivmoddi4+0x78>
    70e0:	d02c      	beq.n	713c <__udivmoddi4+0x74>
    70e2:	4641      	mov	r1, r8
    70e4:	4648      	mov	r0, r9
    70e6:	f000 fff9 	bl	80dc <__clzdi2>
    70ea:	0029      	movs	r1, r5
    70ec:	0006      	movs	r6, r0
    70ee:	0020      	movs	r0, r4
    70f0:	f000 fff4 	bl	80dc <__clzdi2>
    70f4:	1a33      	subs	r3, r6, r0
    70f6:	469c      	mov	ip, r3
    70f8:	3b20      	subs	r3, #32
    70fa:	469a      	mov	sl, r3
    70fc:	d500      	bpl.n	7100 <__udivmoddi4+0x38>
    70fe:	e076      	b.n	71ee <__udivmoddi4+0x126>
    7100:	464b      	mov	r3, r9
    7102:	4652      	mov	r2, sl
    7104:	4093      	lsls	r3, r2
    7106:	001f      	movs	r7, r3
    7108:	464b      	mov	r3, r9
    710a:	4662      	mov	r2, ip
    710c:	4093      	lsls	r3, r2
    710e:	001e      	movs	r6, r3
    7110:	42af      	cmp	r7, r5
    7112:	d828      	bhi.n	7166 <__udivmoddi4+0x9e>
    7114:	d025      	beq.n	7162 <__udivmoddi4+0x9a>
    7116:	4653      	mov	r3, sl
    7118:	1ba4      	subs	r4, r4, r6
    711a:	41bd      	sbcs	r5, r7
    711c:	2b00      	cmp	r3, #0
    711e:	da00      	bge.n	7122 <__udivmoddi4+0x5a>
    7120:	e07b      	b.n	721a <__udivmoddi4+0x152>
    7122:	2200      	movs	r2, #0
    7124:	2300      	movs	r3, #0
    7126:	9200      	str	r2, [sp, #0]
    7128:	9301      	str	r3, [sp, #4]
    712a:	2301      	movs	r3, #1
    712c:	4652      	mov	r2, sl
    712e:	4093      	lsls	r3, r2
    7130:	9301      	str	r3, [sp, #4]
    7132:	2301      	movs	r3, #1
    7134:	4662      	mov	r2, ip
    7136:	4093      	lsls	r3, r2
    7138:	9300      	str	r3, [sp, #0]
    713a:	e018      	b.n	716e <__udivmoddi4+0xa6>
    713c:	4282      	cmp	r2, r0
    713e:	d9d0      	bls.n	70e2 <__udivmoddi4+0x1a>
    7140:	2200      	movs	r2, #0
    7142:	2300      	movs	r3, #0
    7144:	9200      	str	r2, [sp, #0]
    7146:	9301      	str	r3, [sp, #4]
    7148:	9b0a      	ldr	r3, [sp, #40]	; 0x28
    714a:	2b00      	cmp	r3, #0
    714c:	d001      	beq.n	7152 <__udivmoddi4+0x8a>
    714e:	601c      	str	r4, [r3, #0]
    7150:	605d      	str	r5, [r3, #4]
    7152:	9800      	ldr	r0, [sp, #0]
    7154:	9901      	ldr	r1, [sp, #4]
    7156:	b002      	add	sp, #8
    7158:	bc1c      	pop	{r2, r3, r4}
    715a:	4690      	mov	r8, r2
    715c:	4699      	mov	r9, r3
    715e:	46a2      	mov	sl, r4
    7160:	bdf0      	pop	{r4, r5, r6, r7, pc}
    7162:	42a3      	cmp	r3, r4
    7164:	d9d7      	bls.n	7116 <__udivmoddi4+0x4e>
    7166:	2200      	movs	r2, #0
    7168:	2300      	movs	r3, #0
    716a:	9200      	str	r2, [sp, #0]
    716c:	9301      	str	r3, [sp, #4]
    716e:	4663      	mov	r3, ip
    7170:	2b00      	cmp	r3, #0
    7172:	d0e9      	beq.n	7148 <__udivmoddi4+0x80>
    7174:	07fb      	lsls	r3, r7, #31
    7176:	4698      	mov	r8, r3
    7178:	4641      	mov	r1, r8
    717a:	0872      	lsrs	r2, r6, #1
    717c:	430a      	orrs	r2, r1
    717e:	087b      	lsrs	r3, r7, #1
    7180:	4666      	mov	r6, ip
    7182:	e00e      	b.n	71a2 <__udivmoddi4+0xda>
    7184:	42ab      	cmp	r3, r5
    7186:	d101      	bne.n	718c <__udivmoddi4+0xc4>
    7188:	42a2      	cmp	r2, r4
    718a:	d80c      	bhi.n	71a6 <__udivmoddi4+0xde>
    718c:	1aa4      	subs	r4, r4, r2
    718e:	419d      	sbcs	r5, r3
    7190:	2001      	movs	r0, #1
    7192:	1924      	adds	r4, r4, r4
    7194:	416d      	adcs	r5, r5
    7196:	2100      	movs	r1, #0
    7198:	3e01      	subs	r6, #1
    719a:	1824      	adds	r4, r4, r0
    719c:	414d      	adcs	r5, r1
    719e:	2e00      	cmp	r6, #0
    71a0:	d006      	beq.n	71b0 <__udivmoddi4+0xe8>
    71a2:	42ab      	cmp	r3, r5
    71a4:	d9ee      	bls.n	7184 <__udivmoddi4+0xbc>
    71a6:	3e01      	subs	r6, #1
    71a8:	1924      	adds	r4, r4, r4
    71aa:	416d      	adcs	r5, r5
    71ac:	2e00      	cmp	r6, #0
    71ae:	d1f8      	bne.n	71a2 <__udivmoddi4+0xda>
    71b0:	9800      	ldr	r0, [sp, #0]
    71b2:	9901      	ldr	r1, [sp, #4]
    71b4:	4653      	mov	r3, sl
    71b6:	1900      	adds	r0, r0, r4
    71b8:	4169      	adcs	r1, r5
    71ba:	2b00      	cmp	r3, #0
    71bc:	db23      	blt.n	7206 <__udivmoddi4+0x13e>
    71be:	002b      	movs	r3, r5
    71c0:	4652      	mov	r2, sl
    71c2:	40d3      	lsrs	r3, r2
    71c4:	002a      	movs	r2, r5
    71c6:	4664      	mov	r4, ip
    71c8:	40e2      	lsrs	r2, r4
    71ca:	001c      	movs	r4, r3
    71cc:	4653      	mov	r3, sl
    71ce:	0015      	movs	r5, r2
    71d0:	2b00      	cmp	r3, #0
    71d2:	db2d      	blt.n	7230 <__udivmoddi4+0x168>
    71d4:	0026      	movs	r6, r4
    71d6:	4657      	mov	r7, sl
    71d8:	40be      	lsls	r6, r7
    71da:	0033      	movs	r3, r6
    71dc:	0026      	movs	r6, r4
    71de:	4667      	mov	r7, ip
    71e0:	40be      	lsls	r6, r7
    71e2:	0032      	movs	r2, r6
    71e4:	1a80      	subs	r0, r0, r2
    71e6:	4199      	sbcs	r1, r3
    71e8:	9000      	str	r0, [sp, #0]
    71ea:	9101      	str	r1, [sp, #4]
    71ec:	e7ac      	b.n	7148 <__udivmoddi4+0x80>
    71ee:	4662      	mov	r2, ip
    71f0:	2320      	movs	r3, #32
    71f2:	1a9b      	subs	r3, r3, r2
    71f4:	464a      	mov	r2, r9
    71f6:	40da      	lsrs	r2, r3
    71f8:	4661      	mov	r1, ip
    71fa:	0013      	movs	r3, r2
    71fc:	4642      	mov	r2, r8
    71fe:	408a      	lsls	r2, r1
    7200:	0017      	movs	r7, r2
    7202:	431f      	orrs	r7, r3
    7204:	e780      	b.n	7108 <__udivmoddi4+0x40>
    7206:	4662      	mov	r2, ip
    7208:	2320      	movs	r3, #32
    720a:	1a9b      	subs	r3, r3, r2
    720c:	002a      	movs	r2, r5
    720e:	4666      	mov	r6, ip
    7210:	409a      	lsls	r2, r3
    7212:	0023      	movs	r3, r4
    7214:	40f3      	lsrs	r3, r6
    7216:	4313      	orrs	r3, r2
    7218:	e7d4      	b.n	71c4 <__udivmoddi4+0xfc>
    721a:	4662      	mov	r2, ip
    721c:	2320      	movs	r3, #32
    721e:	2100      	movs	r1, #0
    7220:	1a9b      	subs	r3, r3, r2
    7222:	2200      	movs	r2, #0
    7224:	9100      	str	r1, [sp, #0]
    7226:	9201      	str	r2, [sp, #4]
    7228:	2201      	movs	r2, #1
    722a:	40da      	lsrs	r2, r3
    722c:	9201      	str	r2, [sp, #4]
    722e:	e780      	b.n	7132 <__udivmoddi4+0x6a>
    7230:	2320      	movs	r3, #32
    7232:	4662      	mov	r2, ip
    7234:	0026      	movs	r6, r4
    7236:	1a9b      	subs	r3, r3, r2
    7238:	40de      	lsrs	r6, r3
    723a:	002f      	movs	r7, r5
    723c:	46b0      	mov	r8, r6
    723e:	4666      	mov	r6, ip
    7240:	40b7      	lsls	r7, r6
    7242:	4646      	mov	r6, r8
    7244:	003b      	movs	r3, r7
    7246:	4333      	orrs	r3, r6
    7248:	e7c8      	b.n	71dc <__udivmoddi4+0x114>
    724a:	46c0      	nop			; (mov r8, r8)

0000724c <__eqdf2>:
__nedf2():
    724c:	b5f0      	push	{r4, r5, r6, r7, lr}
    724e:	464f      	mov	r7, r9
    7250:	4646      	mov	r6, r8
    7252:	46d6      	mov	lr, sl
    7254:	4684      	mov	ip, r0
    7256:	b5c0      	push	{r6, r7, lr}
    7258:	4680      	mov	r8, r0
    725a:	4e19      	ldr	r6, [pc, #100]	; (72c0 <__eqdf2+0x74>)
    725c:	0318      	lsls	r0, r3, #12
    725e:	030f      	lsls	r7, r1, #12
    7260:	004d      	lsls	r5, r1, #1
    7262:	0b00      	lsrs	r0, r0, #12
    7264:	005c      	lsls	r4, r3, #1
    7266:	4682      	mov	sl, r0
    7268:	0b3f      	lsrs	r7, r7, #12
    726a:	0d6d      	lsrs	r5, r5, #21
    726c:	0fc9      	lsrs	r1, r1, #31
    726e:	4691      	mov	r9, r2
    7270:	0d64      	lsrs	r4, r4, #21
    7272:	0fdb      	lsrs	r3, r3, #31
    7274:	2001      	movs	r0, #1
    7276:	42b5      	cmp	r5, r6
    7278:	d00a      	beq.n	7290 <__eqdf2+0x44>
    727a:	42b4      	cmp	r4, r6
    727c:	d003      	beq.n	7286 <__eqdf2+0x3a>
    727e:	42a5      	cmp	r5, r4
    7280:	d101      	bne.n	7286 <__eqdf2+0x3a>
    7282:	4557      	cmp	r7, sl
    7284:	d00c      	beq.n	72a0 <__eqdf2+0x54>
    7286:	bc1c      	pop	{r2, r3, r4}
    7288:	4690      	mov	r8, r2
    728a:	4699      	mov	r9, r3
    728c:	46a2      	mov	sl, r4
    728e:	bdf0      	pop	{r4, r5, r6, r7, pc}
    7290:	4666      	mov	r6, ip
    7292:	433e      	orrs	r6, r7
    7294:	d1f7      	bne.n	7286 <__eqdf2+0x3a>
    7296:	42ac      	cmp	r4, r5
    7298:	d1f5      	bne.n	7286 <__eqdf2+0x3a>
    729a:	4654      	mov	r4, sl
    729c:	4314      	orrs	r4, r2
    729e:	d1f2      	bne.n	7286 <__eqdf2+0x3a>
    72a0:	2001      	movs	r0, #1
    72a2:	45c8      	cmp	r8, r9
    72a4:	d1ef      	bne.n	7286 <__eqdf2+0x3a>
    72a6:	4299      	cmp	r1, r3
    72a8:	d007      	beq.n	72ba <__eqdf2+0x6e>
    72aa:	2d00      	cmp	r5, #0
    72ac:	d1eb      	bne.n	7286 <__eqdf2+0x3a>
    72ae:	4663      	mov	r3, ip
    72b0:	431f      	orrs	r7, r3
    72b2:	0038      	movs	r0, r7
    72b4:	1e47      	subs	r7, r0, #1
    72b6:	41b8      	sbcs	r0, r7
    72b8:	e7e5      	b.n	7286 <__eqdf2+0x3a>
    72ba:	2000      	movs	r0, #0
    72bc:	e7e3      	b.n	7286 <__eqdf2+0x3a>
    72be:	46c0      	nop			; (mov r8, r8)
    72c0:	000007ff 	.word	0x000007ff

000072c4 <__gedf2>:
__gedf2():
    72c4:	b5f0      	push	{r4, r5, r6, r7, lr}
    72c6:	464f      	mov	r7, r9
    72c8:	4646      	mov	r6, r8
    72ca:	46d6      	mov	lr, sl
    72cc:	004d      	lsls	r5, r1, #1
    72ce:	b5c0      	push	{r6, r7, lr}
    72d0:	030e      	lsls	r6, r1, #12
    72d2:	0fc9      	lsrs	r1, r1, #31
    72d4:	468a      	mov	sl, r1
    72d6:	492c      	ldr	r1, [pc, #176]	; (7388 <__gedf2+0xc4>)
    72d8:	031f      	lsls	r7, r3, #12
    72da:	005c      	lsls	r4, r3, #1
    72dc:	4680      	mov	r8, r0
    72de:	0b36      	lsrs	r6, r6, #12
    72e0:	0d6d      	lsrs	r5, r5, #21
    72e2:	4691      	mov	r9, r2
    72e4:	0b3f      	lsrs	r7, r7, #12
    72e6:	0d64      	lsrs	r4, r4, #21
    72e8:	0fdb      	lsrs	r3, r3, #31
    72ea:	428d      	cmp	r5, r1
    72ec:	d01e      	beq.n	732c <__gedf2+0x68>
    72ee:	428c      	cmp	r4, r1
    72f0:	d016      	beq.n	7320 <__gedf2+0x5c>
    72f2:	2d00      	cmp	r5, #0
    72f4:	d11e      	bne.n	7334 <__gedf2+0x70>
    72f6:	4330      	orrs	r0, r6
    72f8:	4684      	mov	ip, r0
    72fa:	2c00      	cmp	r4, #0
    72fc:	d101      	bne.n	7302 <__gedf2+0x3e>
    72fe:	433a      	orrs	r2, r7
    7300:	d023      	beq.n	734a <__gedf2+0x86>
    7302:	4662      	mov	r2, ip
    7304:	2a00      	cmp	r2, #0
    7306:	d01a      	beq.n	733e <__gedf2+0x7a>
    7308:	459a      	cmp	sl, r3
    730a:	d029      	beq.n	7360 <__gedf2+0x9c>
    730c:	4651      	mov	r1, sl
    730e:	2002      	movs	r0, #2
    7310:	3901      	subs	r1, #1
    7312:	4008      	ands	r0, r1
    7314:	3801      	subs	r0, #1
    7316:	bc1c      	pop	{r2, r3, r4}
    7318:	4690      	mov	r8, r2
    731a:	4699      	mov	r9, r3
    731c:	46a2      	mov	sl, r4
    731e:	bdf0      	pop	{r4, r5, r6, r7, pc}
    7320:	0039      	movs	r1, r7
    7322:	4311      	orrs	r1, r2
    7324:	d0e5      	beq.n	72f2 <__gedf2+0x2e>
    7326:	2002      	movs	r0, #2
    7328:	4240      	negs	r0, r0
    732a:	e7f4      	b.n	7316 <__gedf2+0x52>
    732c:	4330      	orrs	r0, r6
    732e:	d1fa      	bne.n	7326 <__gedf2+0x62>
    7330:	42ac      	cmp	r4, r5
    7332:	d00f      	beq.n	7354 <__gedf2+0x90>
    7334:	2c00      	cmp	r4, #0
    7336:	d10f      	bne.n	7358 <__gedf2+0x94>
    7338:	433a      	orrs	r2, r7
    733a:	d0e7      	beq.n	730c <__gedf2+0x48>
    733c:	e00c      	b.n	7358 <__gedf2+0x94>
    733e:	2201      	movs	r2, #1
    7340:	3b01      	subs	r3, #1
    7342:	4393      	bics	r3, r2
    7344:	0018      	movs	r0, r3
    7346:	3001      	adds	r0, #1
    7348:	e7e5      	b.n	7316 <__gedf2+0x52>
    734a:	4663      	mov	r3, ip
    734c:	2000      	movs	r0, #0
    734e:	2b00      	cmp	r3, #0
    7350:	d0e1      	beq.n	7316 <__gedf2+0x52>
    7352:	e7db      	b.n	730c <__gedf2+0x48>
    7354:	433a      	orrs	r2, r7
    7356:	d1e6      	bne.n	7326 <__gedf2+0x62>
    7358:	459a      	cmp	sl, r3
    735a:	d1d7      	bne.n	730c <__gedf2+0x48>
    735c:	42a5      	cmp	r5, r4
    735e:	dcd5      	bgt.n	730c <__gedf2+0x48>
    7360:	42a5      	cmp	r5, r4
    7362:	db05      	blt.n	7370 <__gedf2+0xac>
    7364:	42be      	cmp	r6, r7
    7366:	d8d1      	bhi.n	730c <__gedf2+0x48>
    7368:	d008      	beq.n	737c <__gedf2+0xb8>
    736a:	2000      	movs	r0, #0
    736c:	42be      	cmp	r6, r7
    736e:	d2d2      	bcs.n	7316 <__gedf2+0x52>
    7370:	4650      	mov	r0, sl
    7372:	2301      	movs	r3, #1
    7374:	3801      	subs	r0, #1
    7376:	4398      	bics	r0, r3
    7378:	3001      	adds	r0, #1
    737a:	e7cc      	b.n	7316 <__gedf2+0x52>
    737c:	45c8      	cmp	r8, r9
    737e:	d8c5      	bhi.n	730c <__gedf2+0x48>
    7380:	2000      	movs	r0, #0
    7382:	45c8      	cmp	r8, r9
    7384:	d3f4      	bcc.n	7370 <__gedf2+0xac>
    7386:	e7c6      	b.n	7316 <__gedf2+0x52>
    7388:	000007ff 	.word	0x000007ff

0000738c <__ledf2>:
__ledf2():
    738c:	b5f0      	push	{r4, r5, r6, r7, lr}
    738e:	464f      	mov	r7, r9
    7390:	4646      	mov	r6, r8
    7392:	46d6      	mov	lr, sl
    7394:	004d      	lsls	r5, r1, #1
    7396:	b5c0      	push	{r6, r7, lr}
    7398:	030e      	lsls	r6, r1, #12
    739a:	0fc9      	lsrs	r1, r1, #31
    739c:	468a      	mov	sl, r1
    739e:	492e      	ldr	r1, [pc, #184]	; (7458 <__ledf2+0xcc>)
    73a0:	031f      	lsls	r7, r3, #12
    73a2:	005c      	lsls	r4, r3, #1
    73a4:	4680      	mov	r8, r0
    73a6:	0b36      	lsrs	r6, r6, #12
    73a8:	0d6d      	lsrs	r5, r5, #21
    73aa:	4691      	mov	r9, r2
    73ac:	0b3f      	lsrs	r7, r7, #12
    73ae:	0d64      	lsrs	r4, r4, #21
    73b0:	0fdb      	lsrs	r3, r3, #31
    73b2:	428d      	cmp	r5, r1
    73b4:	d018      	beq.n	73e8 <__ledf2+0x5c>
    73b6:	428c      	cmp	r4, r1
    73b8:	d011      	beq.n	73de <__ledf2+0x52>
    73ba:	2d00      	cmp	r5, #0
    73bc:	d118      	bne.n	73f0 <__ledf2+0x64>
    73be:	4330      	orrs	r0, r6
    73c0:	4684      	mov	ip, r0
    73c2:	2c00      	cmp	r4, #0
    73c4:	d11e      	bne.n	7404 <__ledf2+0x78>
    73c6:	433a      	orrs	r2, r7
    73c8:	d11c      	bne.n	7404 <__ledf2+0x78>
    73ca:	4663      	mov	r3, ip
    73cc:	2000      	movs	r0, #0
    73ce:	2b00      	cmp	r3, #0
    73d0:	d030      	beq.n	7434 <__ledf2+0xa8>
    73d2:	4651      	mov	r1, sl
    73d4:	2002      	movs	r0, #2
    73d6:	3901      	subs	r1, #1
    73d8:	4008      	ands	r0, r1
    73da:	3801      	subs	r0, #1
    73dc:	e02a      	b.n	7434 <__ledf2+0xa8>
    73de:	0039      	movs	r1, r7
    73e0:	4311      	orrs	r1, r2
    73e2:	d0ea      	beq.n	73ba <__ledf2+0x2e>
    73e4:	2002      	movs	r0, #2
    73e6:	e025      	b.n	7434 <__ledf2+0xa8>
    73e8:	4330      	orrs	r0, r6
    73ea:	d1fb      	bne.n	73e4 <__ledf2+0x58>
    73ec:	42ac      	cmp	r4, r5
    73ee:	d026      	beq.n	743e <__ledf2+0xb2>
    73f0:	2c00      	cmp	r4, #0
    73f2:	d126      	bne.n	7442 <__ledf2+0xb6>
    73f4:	433a      	orrs	r2, r7
    73f6:	d124      	bne.n	7442 <__ledf2+0xb6>
    73f8:	4651      	mov	r1, sl
    73fa:	2002      	movs	r0, #2
    73fc:	3901      	subs	r1, #1
    73fe:	4008      	ands	r0, r1
    7400:	3801      	subs	r0, #1
    7402:	e017      	b.n	7434 <__ledf2+0xa8>
    7404:	4662      	mov	r2, ip
    7406:	2a00      	cmp	r2, #0
    7408:	d00f      	beq.n	742a <__ledf2+0x9e>
    740a:	459a      	cmp	sl, r3
    740c:	d1e1      	bne.n	73d2 <__ledf2+0x46>
    740e:	42a5      	cmp	r5, r4
    7410:	db05      	blt.n	741e <__ledf2+0x92>
    7412:	42be      	cmp	r6, r7
    7414:	d8dd      	bhi.n	73d2 <__ledf2+0x46>
    7416:	d019      	beq.n	744c <__ledf2+0xc0>
    7418:	2000      	movs	r0, #0
    741a:	42be      	cmp	r6, r7
    741c:	d20a      	bcs.n	7434 <__ledf2+0xa8>
    741e:	4650      	mov	r0, sl
    7420:	2301      	movs	r3, #1
    7422:	3801      	subs	r0, #1
    7424:	4398      	bics	r0, r3
    7426:	3001      	adds	r0, #1
    7428:	e004      	b.n	7434 <__ledf2+0xa8>
    742a:	2201      	movs	r2, #1
    742c:	3b01      	subs	r3, #1
    742e:	4393      	bics	r3, r2
    7430:	0018      	movs	r0, r3
    7432:	3001      	adds	r0, #1
    7434:	bc1c      	pop	{r2, r3, r4}
    7436:	4690      	mov	r8, r2
    7438:	4699      	mov	r9, r3
    743a:	46a2      	mov	sl, r4
    743c:	bdf0      	pop	{r4, r5, r6, r7, pc}
    743e:	433a      	orrs	r2, r7
    7440:	d1d0      	bne.n	73e4 <__ledf2+0x58>
    7442:	459a      	cmp	sl, r3
    7444:	d1c5      	bne.n	73d2 <__ledf2+0x46>
    7446:	42a5      	cmp	r5, r4
    7448:	dcc3      	bgt.n	73d2 <__ledf2+0x46>
    744a:	e7e0      	b.n	740e <__ledf2+0x82>
    744c:	45c8      	cmp	r8, r9
    744e:	d8c0      	bhi.n	73d2 <__ledf2+0x46>
    7450:	2000      	movs	r0, #0
    7452:	45c8      	cmp	r8, r9
    7454:	d3e3      	bcc.n	741e <__ledf2+0x92>
    7456:	e7ed      	b.n	7434 <__ledf2+0xa8>
    7458:	000007ff 	.word	0x000007ff

0000745c <__aeabi_dmul>:
__aeabi_dmul():
    745c:	b5f0      	push	{r4, r5, r6, r7, lr}
    745e:	4657      	mov	r7, sl
    7460:	46de      	mov	lr, fp
    7462:	464e      	mov	r6, r9
    7464:	4645      	mov	r5, r8
    7466:	b5e0      	push	{r5, r6, r7, lr}
    7468:	4683      	mov	fp, r0
    746a:	0006      	movs	r6, r0
    746c:	030f      	lsls	r7, r1, #12
    746e:	0048      	lsls	r0, r1, #1
    7470:	b087      	sub	sp, #28
    7472:	4692      	mov	sl, r2
    7474:	001d      	movs	r5, r3
    7476:	0b3f      	lsrs	r7, r7, #12
    7478:	0d40      	lsrs	r0, r0, #21
    747a:	0fcc      	lsrs	r4, r1, #31
    747c:	2800      	cmp	r0, #0
    747e:	d100      	bne.n	7482 <__aeabi_dmul+0x26>
    7480:	e06f      	b.n	7562 <__aeabi_dmul+0x106>
    7482:	4bde      	ldr	r3, [pc, #888]	; (77fc <__aeabi_dmul+0x3a0>)
    7484:	4298      	cmp	r0, r3
    7486:	d038      	beq.n	74fa <__aeabi_dmul+0x9e>
    7488:	2380      	movs	r3, #128	; 0x80
    748a:	00ff      	lsls	r7, r7, #3
    748c:	041b      	lsls	r3, r3, #16
    748e:	431f      	orrs	r7, r3
    7490:	0f73      	lsrs	r3, r6, #29
    7492:	433b      	orrs	r3, r7
    7494:	9301      	str	r3, [sp, #4]
    7496:	4bda      	ldr	r3, [pc, #872]	; (7800 <__aeabi_dmul+0x3a4>)
    7498:	2700      	movs	r7, #0
    749a:	4699      	mov	r9, r3
    749c:	2300      	movs	r3, #0
    749e:	469b      	mov	fp, r3
    74a0:	00f6      	lsls	r6, r6, #3
    74a2:	4481      	add	r9, r0
    74a4:	032b      	lsls	r3, r5, #12
    74a6:	0069      	lsls	r1, r5, #1
    74a8:	0b1b      	lsrs	r3, r3, #12
    74aa:	4652      	mov	r2, sl
    74ac:	4698      	mov	r8, r3
    74ae:	0d49      	lsrs	r1, r1, #21
    74b0:	0fed      	lsrs	r5, r5, #31
    74b2:	2900      	cmp	r1, #0
    74b4:	d100      	bne.n	74b8 <__aeabi_dmul+0x5c>
    74b6:	e085      	b.n	75c4 <__aeabi_dmul+0x168>
    74b8:	4bd0      	ldr	r3, [pc, #832]	; (77fc <__aeabi_dmul+0x3a0>)
    74ba:	4299      	cmp	r1, r3
    74bc:	d100      	bne.n	74c0 <__aeabi_dmul+0x64>
    74be:	e073      	b.n	75a8 <__aeabi_dmul+0x14c>
    74c0:	4643      	mov	r3, r8
    74c2:	00da      	lsls	r2, r3, #3
    74c4:	2380      	movs	r3, #128	; 0x80
    74c6:	041b      	lsls	r3, r3, #16
    74c8:	4313      	orrs	r3, r2
    74ca:	4652      	mov	r2, sl
    74cc:	48cc      	ldr	r0, [pc, #816]	; (7800 <__aeabi_dmul+0x3a4>)
    74ce:	0f52      	lsrs	r2, r2, #29
    74d0:	4684      	mov	ip, r0
    74d2:	4313      	orrs	r3, r2
    74d4:	4652      	mov	r2, sl
    74d6:	2000      	movs	r0, #0
    74d8:	4461      	add	r1, ip
    74da:	00d2      	lsls	r2, r2, #3
    74dc:	4489      	add	r9, r1
    74de:	0021      	movs	r1, r4
    74e0:	4069      	eors	r1, r5
    74e2:	9100      	str	r1, [sp, #0]
    74e4:	468c      	mov	ip, r1
    74e6:	2101      	movs	r1, #1
    74e8:	4449      	add	r1, r9
    74ea:	468a      	mov	sl, r1
    74ec:	2f0f      	cmp	r7, #15
    74ee:	d900      	bls.n	74f2 <__aeabi_dmul+0x96>
    74f0:	e090      	b.n	7614 <__aeabi_dmul+0x1b8>
    74f2:	49c4      	ldr	r1, [pc, #784]	; (7804 <__aeabi_dmul+0x3a8>)
    74f4:	00bf      	lsls	r7, r7, #2
    74f6:	59cf      	ldr	r7, [r1, r7]
    74f8:	46bf      	mov	pc, r7
    74fa:	465b      	mov	r3, fp
    74fc:	433b      	orrs	r3, r7
    74fe:	9301      	str	r3, [sp, #4]
    7500:	d000      	beq.n	7504 <__aeabi_dmul+0xa8>
    7502:	e16a      	b.n	77da <__aeabi_dmul+0x37e>
    7504:	2302      	movs	r3, #2
    7506:	2708      	movs	r7, #8
    7508:	2600      	movs	r6, #0
    750a:	4681      	mov	r9, r0
    750c:	469b      	mov	fp, r3
    750e:	e7c9      	b.n	74a4 <__aeabi_dmul+0x48>
    7510:	0032      	movs	r2, r6
    7512:	4658      	mov	r0, fp
    7514:	9b01      	ldr	r3, [sp, #4]
    7516:	4661      	mov	r1, ip
    7518:	9100      	str	r1, [sp, #0]
    751a:	2802      	cmp	r0, #2
    751c:	d100      	bne.n	7520 <__aeabi_dmul+0xc4>
    751e:	e075      	b.n	760c <__aeabi_dmul+0x1b0>
    7520:	2803      	cmp	r0, #3
    7522:	d100      	bne.n	7526 <__aeabi_dmul+0xca>
    7524:	e1fe      	b.n	7924 <__aeabi_dmul+0x4c8>
    7526:	2801      	cmp	r0, #1
    7528:	d000      	beq.n	752c <__aeabi_dmul+0xd0>
    752a:	e12c      	b.n	7786 <__aeabi_dmul+0x32a>
    752c:	2300      	movs	r3, #0
    752e:	2700      	movs	r7, #0
    7530:	2600      	movs	r6, #0
    7532:	2500      	movs	r5, #0
    7534:	033f      	lsls	r7, r7, #12
    7536:	0d2a      	lsrs	r2, r5, #20
    7538:	0b3f      	lsrs	r7, r7, #12
    753a:	48b3      	ldr	r0, [pc, #716]	; (7808 <__aeabi_dmul+0x3ac>)
    753c:	0512      	lsls	r2, r2, #20
    753e:	433a      	orrs	r2, r7
    7540:	4002      	ands	r2, r0
    7542:	051b      	lsls	r3, r3, #20
    7544:	4313      	orrs	r3, r2
    7546:	9a00      	ldr	r2, [sp, #0]
    7548:	005b      	lsls	r3, r3, #1
    754a:	07d1      	lsls	r1, r2, #31
    754c:	085b      	lsrs	r3, r3, #1
    754e:	430b      	orrs	r3, r1
    7550:	0030      	movs	r0, r6
    7552:	0019      	movs	r1, r3
    7554:	b007      	add	sp, #28
    7556:	bc3c      	pop	{r2, r3, r4, r5}
    7558:	4690      	mov	r8, r2
    755a:	4699      	mov	r9, r3
    755c:	46a2      	mov	sl, r4
    755e:	46ab      	mov	fp, r5
    7560:	bdf0      	pop	{r4, r5, r6, r7, pc}
    7562:	465b      	mov	r3, fp
    7564:	433b      	orrs	r3, r7
    7566:	9301      	str	r3, [sp, #4]
    7568:	d100      	bne.n	756c <__aeabi_dmul+0x110>
    756a:	e12f      	b.n	77cc <__aeabi_dmul+0x370>
    756c:	2f00      	cmp	r7, #0
    756e:	d100      	bne.n	7572 <__aeabi_dmul+0x116>
    7570:	e1a5      	b.n	78be <__aeabi_dmul+0x462>
    7572:	0038      	movs	r0, r7
    7574:	f000 fd94 	bl	80a0 <__clzsi2>
    7578:	0003      	movs	r3, r0
    757a:	3b0b      	subs	r3, #11
    757c:	2b1c      	cmp	r3, #28
    757e:	dd00      	ble.n	7582 <__aeabi_dmul+0x126>
    7580:	e196      	b.n	78b0 <__aeabi_dmul+0x454>
    7582:	221d      	movs	r2, #29
    7584:	1ad3      	subs	r3, r2, r3
    7586:	465a      	mov	r2, fp
    7588:	0001      	movs	r1, r0
    758a:	40da      	lsrs	r2, r3
    758c:	465e      	mov	r6, fp
    758e:	3908      	subs	r1, #8
    7590:	408f      	lsls	r7, r1
    7592:	0013      	movs	r3, r2
    7594:	408e      	lsls	r6, r1
    7596:	433b      	orrs	r3, r7
    7598:	9301      	str	r3, [sp, #4]
    759a:	4b9c      	ldr	r3, [pc, #624]	; (780c <__aeabi_dmul+0x3b0>)
    759c:	2700      	movs	r7, #0
    759e:	1a1b      	subs	r3, r3, r0
    75a0:	4699      	mov	r9, r3
    75a2:	2300      	movs	r3, #0
    75a4:	469b      	mov	fp, r3
    75a6:	e77d      	b.n	74a4 <__aeabi_dmul+0x48>
    75a8:	4641      	mov	r1, r8
    75aa:	4653      	mov	r3, sl
    75ac:	430b      	orrs	r3, r1
    75ae:	4993      	ldr	r1, [pc, #588]	; (77fc <__aeabi_dmul+0x3a0>)
    75b0:	468c      	mov	ip, r1
    75b2:	44e1      	add	r9, ip
    75b4:	2b00      	cmp	r3, #0
    75b6:	d000      	beq.n	75ba <__aeabi_dmul+0x15e>
    75b8:	e11a      	b.n	77f0 <__aeabi_dmul+0x394>
    75ba:	2202      	movs	r2, #2
    75bc:	2002      	movs	r0, #2
    75be:	4317      	orrs	r7, r2
    75c0:	2200      	movs	r2, #0
    75c2:	e78c      	b.n	74de <__aeabi_dmul+0x82>
    75c4:	4313      	orrs	r3, r2
    75c6:	d100      	bne.n	75ca <__aeabi_dmul+0x16e>
    75c8:	e10d      	b.n	77e6 <__aeabi_dmul+0x38a>
    75ca:	4643      	mov	r3, r8
    75cc:	2b00      	cmp	r3, #0
    75ce:	d100      	bne.n	75d2 <__aeabi_dmul+0x176>
    75d0:	e181      	b.n	78d6 <__aeabi_dmul+0x47a>
    75d2:	4640      	mov	r0, r8
    75d4:	f000 fd64 	bl	80a0 <__clzsi2>
    75d8:	0002      	movs	r2, r0
    75da:	3a0b      	subs	r2, #11
    75dc:	2a1c      	cmp	r2, #28
    75de:	dd00      	ble.n	75e2 <__aeabi_dmul+0x186>
    75e0:	e172      	b.n	78c8 <__aeabi_dmul+0x46c>
    75e2:	0001      	movs	r1, r0
    75e4:	4643      	mov	r3, r8
    75e6:	3908      	subs	r1, #8
    75e8:	408b      	lsls	r3, r1
    75ea:	4698      	mov	r8, r3
    75ec:	231d      	movs	r3, #29
    75ee:	1a9a      	subs	r2, r3, r2
    75f0:	4653      	mov	r3, sl
    75f2:	40d3      	lsrs	r3, r2
    75f4:	001a      	movs	r2, r3
    75f6:	4643      	mov	r3, r8
    75f8:	4313      	orrs	r3, r2
    75fa:	4652      	mov	r2, sl
    75fc:	408a      	lsls	r2, r1
    75fe:	4649      	mov	r1, r9
    7600:	1a08      	subs	r0, r1, r0
    7602:	4982      	ldr	r1, [pc, #520]	; (780c <__aeabi_dmul+0x3b0>)
    7604:	4689      	mov	r9, r1
    7606:	4481      	add	r9, r0
    7608:	2000      	movs	r0, #0
    760a:	e768      	b.n	74de <__aeabi_dmul+0x82>
    760c:	4b7b      	ldr	r3, [pc, #492]	; (77fc <__aeabi_dmul+0x3a0>)
    760e:	2700      	movs	r7, #0
    7610:	2600      	movs	r6, #0
    7612:	e78e      	b.n	7532 <__aeabi_dmul+0xd6>
    7614:	0c14      	lsrs	r4, r2, #16
    7616:	0412      	lsls	r2, r2, #16
    7618:	0c12      	lsrs	r2, r2, #16
    761a:	0011      	movs	r1, r2
    761c:	0c37      	lsrs	r7, r6, #16
    761e:	0436      	lsls	r6, r6, #16
    7620:	0c35      	lsrs	r5, r6, #16
    7622:	4379      	muls	r1, r7
    7624:	0028      	movs	r0, r5
    7626:	468c      	mov	ip, r1
    7628:	002e      	movs	r6, r5
    762a:	4360      	muls	r0, r4
    762c:	4460      	add	r0, ip
    762e:	4683      	mov	fp, r0
    7630:	4356      	muls	r6, r2
    7632:	0021      	movs	r1, r4
    7634:	0c30      	lsrs	r0, r6, #16
    7636:	4680      	mov	r8, r0
    7638:	4658      	mov	r0, fp
    763a:	4379      	muls	r1, r7
    763c:	4440      	add	r0, r8
    763e:	9102      	str	r1, [sp, #8]
    7640:	4584      	cmp	ip, r0
    7642:	d906      	bls.n	7652 <__aeabi_dmul+0x1f6>
    7644:	4688      	mov	r8, r1
    7646:	2180      	movs	r1, #128	; 0x80
    7648:	0249      	lsls	r1, r1, #9
    764a:	468c      	mov	ip, r1
    764c:	44e0      	add	r8, ip
    764e:	4641      	mov	r1, r8
    7650:	9102      	str	r1, [sp, #8]
    7652:	0436      	lsls	r6, r6, #16
    7654:	0c01      	lsrs	r1, r0, #16
    7656:	0c36      	lsrs	r6, r6, #16
    7658:	0400      	lsls	r0, r0, #16
    765a:	468b      	mov	fp, r1
    765c:	1981      	adds	r1, r0, r6
    765e:	0c1e      	lsrs	r6, r3, #16
    7660:	041b      	lsls	r3, r3, #16
    7662:	0c1b      	lsrs	r3, r3, #16
    7664:	9103      	str	r1, [sp, #12]
    7666:	0019      	movs	r1, r3
    7668:	4379      	muls	r1, r7
    766a:	468c      	mov	ip, r1
    766c:	0028      	movs	r0, r5
    766e:	4375      	muls	r5, r6
    7670:	4465      	add	r5, ip
    7672:	46a8      	mov	r8, r5
    7674:	4358      	muls	r0, r3
    7676:	0c05      	lsrs	r5, r0, #16
    7678:	4445      	add	r5, r8
    767a:	4377      	muls	r7, r6
    767c:	42a9      	cmp	r1, r5
    767e:	d903      	bls.n	7688 <__aeabi_dmul+0x22c>
    7680:	2180      	movs	r1, #128	; 0x80
    7682:	0249      	lsls	r1, r1, #9
    7684:	468c      	mov	ip, r1
    7686:	4467      	add	r7, ip
    7688:	0c29      	lsrs	r1, r5, #16
    768a:	468c      	mov	ip, r1
    768c:	0039      	movs	r1, r7
    768e:	0400      	lsls	r0, r0, #16
    7690:	0c00      	lsrs	r0, r0, #16
    7692:	042d      	lsls	r5, r5, #16
    7694:	182d      	adds	r5, r5, r0
    7696:	4461      	add	r1, ip
    7698:	44ab      	add	fp, r5
    769a:	9105      	str	r1, [sp, #20]
    769c:	4659      	mov	r1, fp
    769e:	9104      	str	r1, [sp, #16]
    76a0:	9901      	ldr	r1, [sp, #4]
    76a2:	040f      	lsls	r7, r1, #16
    76a4:	0c3f      	lsrs	r7, r7, #16
    76a6:	0c08      	lsrs	r0, r1, #16
    76a8:	0039      	movs	r1, r7
    76aa:	4351      	muls	r1, r2
    76ac:	4342      	muls	r2, r0
    76ae:	4690      	mov	r8, r2
    76b0:	0002      	movs	r2, r0
    76b2:	468c      	mov	ip, r1
    76b4:	0c09      	lsrs	r1, r1, #16
    76b6:	468b      	mov	fp, r1
    76b8:	4362      	muls	r2, r4
    76ba:	437c      	muls	r4, r7
    76bc:	4444      	add	r4, r8
    76be:	445c      	add	r4, fp
    76c0:	45a0      	cmp	r8, r4
    76c2:	d903      	bls.n	76cc <__aeabi_dmul+0x270>
    76c4:	2180      	movs	r1, #128	; 0x80
    76c6:	0249      	lsls	r1, r1, #9
    76c8:	4688      	mov	r8, r1
    76ca:	4442      	add	r2, r8
    76cc:	0c21      	lsrs	r1, r4, #16
    76ce:	4688      	mov	r8, r1
    76d0:	4661      	mov	r1, ip
    76d2:	0409      	lsls	r1, r1, #16
    76d4:	0c09      	lsrs	r1, r1, #16
    76d6:	468c      	mov	ip, r1
    76d8:	0039      	movs	r1, r7
    76da:	4359      	muls	r1, r3
    76dc:	4343      	muls	r3, r0
    76de:	4370      	muls	r0, r6
    76e0:	437e      	muls	r6, r7
    76e2:	0c0f      	lsrs	r7, r1, #16
    76e4:	18f6      	adds	r6, r6, r3
    76e6:	0424      	lsls	r4, r4, #16
    76e8:	19be      	adds	r6, r7, r6
    76ea:	4464      	add	r4, ip
    76ec:	4442      	add	r2, r8
    76ee:	468c      	mov	ip, r1
    76f0:	42b3      	cmp	r3, r6
    76f2:	d903      	bls.n	76fc <__aeabi_dmul+0x2a0>
    76f4:	2380      	movs	r3, #128	; 0x80
    76f6:	025b      	lsls	r3, r3, #9
    76f8:	4698      	mov	r8, r3
    76fa:	4440      	add	r0, r8
    76fc:	9b02      	ldr	r3, [sp, #8]
    76fe:	4661      	mov	r1, ip
    7700:	4698      	mov	r8, r3
    7702:	9b04      	ldr	r3, [sp, #16]
    7704:	0437      	lsls	r7, r6, #16
    7706:	4443      	add	r3, r8
    7708:	469b      	mov	fp, r3
    770a:	45ab      	cmp	fp, r5
    770c:	41ad      	sbcs	r5, r5
    770e:	426b      	negs	r3, r5
    7710:	040d      	lsls	r5, r1, #16
    7712:	9905      	ldr	r1, [sp, #20]
    7714:	0c2d      	lsrs	r5, r5, #16
    7716:	468c      	mov	ip, r1
    7718:	197f      	adds	r7, r7, r5
    771a:	4467      	add	r7, ip
    771c:	18fd      	adds	r5, r7, r3
    771e:	46a8      	mov	r8, r5
    7720:	465d      	mov	r5, fp
    7722:	192d      	adds	r5, r5, r4
    7724:	42a5      	cmp	r5, r4
    7726:	41a4      	sbcs	r4, r4
    7728:	4693      	mov	fp, r2
    772a:	4264      	negs	r4, r4
    772c:	46a4      	mov	ip, r4
    772e:	44c3      	add	fp, r8
    7730:	44dc      	add	ip, fp
    7732:	428f      	cmp	r7, r1
    7734:	41bf      	sbcs	r7, r7
    7736:	4598      	cmp	r8, r3
    7738:	419b      	sbcs	r3, r3
    773a:	4593      	cmp	fp, r2
    773c:	4192      	sbcs	r2, r2
    773e:	45a4      	cmp	ip, r4
    7740:	41a4      	sbcs	r4, r4
    7742:	425b      	negs	r3, r3
    7744:	427f      	negs	r7, r7
    7746:	431f      	orrs	r7, r3
    7748:	0c36      	lsrs	r6, r6, #16
    774a:	4252      	negs	r2, r2
    774c:	4264      	negs	r4, r4
    774e:	19bf      	adds	r7, r7, r6
    7750:	4322      	orrs	r2, r4
    7752:	18bf      	adds	r7, r7, r2
    7754:	4662      	mov	r2, ip
    7756:	1838      	adds	r0, r7, r0
    7758:	0243      	lsls	r3, r0, #9
    775a:	0dd2      	lsrs	r2, r2, #23
    775c:	9903      	ldr	r1, [sp, #12]
    775e:	4313      	orrs	r3, r2
    7760:	026a      	lsls	r2, r5, #9
    7762:	430a      	orrs	r2, r1
    7764:	1e50      	subs	r0, r2, #1
    7766:	4182      	sbcs	r2, r0
    7768:	4661      	mov	r1, ip
    776a:	0ded      	lsrs	r5, r5, #23
    776c:	432a      	orrs	r2, r5
    776e:	024e      	lsls	r6, r1, #9
    7770:	4332      	orrs	r2, r6
    7772:	01d9      	lsls	r1, r3, #7
    7774:	d400      	bmi.n	7778 <__aeabi_dmul+0x31c>
    7776:	e0b3      	b.n	78e0 <__aeabi_dmul+0x484>
    7778:	2601      	movs	r6, #1
    777a:	0850      	lsrs	r0, r2, #1
    777c:	4032      	ands	r2, r6
    777e:	4302      	orrs	r2, r0
    7780:	07de      	lsls	r6, r3, #31
    7782:	4332      	orrs	r2, r6
    7784:	085b      	lsrs	r3, r3, #1
    7786:	4c22      	ldr	r4, [pc, #136]	; (7810 <__aeabi_dmul+0x3b4>)
    7788:	4454      	add	r4, sl
    778a:	2c00      	cmp	r4, #0
    778c:	dd62      	ble.n	7854 <__aeabi_dmul+0x3f8>
    778e:	0751      	lsls	r1, r2, #29
    7790:	d009      	beq.n	77a6 <__aeabi_dmul+0x34a>
    7792:	200f      	movs	r0, #15
    7794:	4010      	ands	r0, r2
    7796:	2804      	cmp	r0, #4
    7798:	d005      	beq.n	77a6 <__aeabi_dmul+0x34a>
    779a:	1d10      	adds	r0, r2, #4
    779c:	4290      	cmp	r0, r2
    779e:	4192      	sbcs	r2, r2
    77a0:	4252      	negs	r2, r2
    77a2:	189b      	adds	r3, r3, r2
    77a4:	0002      	movs	r2, r0
    77a6:	01d9      	lsls	r1, r3, #7
    77a8:	d504      	bpl.n	77b4 <__aeabi_dmul+0x358>
    77aa:	2480      	movs	r4, #128	; 0x80
    77ac:	4819      	ldr	r0, [pc, #100]	; (7814 <__aeabi_dmul+0x3b8>)
    77ae:	00e4      	lsls	r4, r4, #3
    77b0:	4003      	ands	r3, r0
    77b2:	4454      	add	r4, sl
    77b4:	4818      	ldr	r0, [pc, #96]	; (7818 <__aeabi_dmul+0x3bc>)
    77b6:	4284      	cmp	r4, r0
    77b8:	dd00      	ble.n	77bc <__aeabi_dmul+0x360>
    77ba:	e727      	b.n	760c <__aeabi_dmul+0x1b0>
    77bc:	075e      	lsls	r6, r3, #29
    77be:	025b      	lsls	r3, r3, #9
    77c0:	08d2      	lsrs	r2, r2, #3
    77c2:	0b1f      	lsrs	r7, r3, #12
    77c4:	0563      	lsls	r3, r4, #21
    77c6:	4316      	orrs	r6, r2
    77c8:	0d5b      	lsrs	r3, r3, #21
    77ca:	e6b2      	b.n	7532 <__aeabi_dmul+0xd6>
    77cc:	2300      	movs	r3, #0
    77ce:	4699      	mov	r9, r3
    77d0:	3301      	adds	r3, #1
    77d2:	2704      	movs	r7, #4
    77d4:	2600      	movs	r6, #0
    77d6:	469b      	mov	fp, r3
    77d8:	e664      	b.n	74a4 <__aeabi_dmul+0x48>
    77da:	2303      	movs	r3, #3
    77dc:	9701      	str	r7, [sp, #4]
    77de:	4681      	mov	r9, r0
    77e0:	270c      	movs	r7, #12
    77e2:	469b      	mov	fp, r3
    77e4:	e65e      	b.n	74a4 <__aeabi_dmul+0x48>
    77e6:	2201      	movs	r2, #1
    77e8:	2001      	movs	r0, #1
    77ea:	4317      	orrs	r7, r2
    77ec:	2200      	movs	r2, #0
    77ee:	e676      	b.n	74de <__aeabi_dmul+0x82>
    77f0:	2303      	movs	r3, #3
    77f2:	2003      	movs	r0, #3
    77f4:	431f      	orrs	r7, r3
    77f6:	4643      	mov	r3, r8
    77f8:	e671      	b.n	74de <__aeabi_dmul+0x82>
    77fa:	46c0      	nop			; (mov r8, r8)
    77fc:	000007ff 	.word	0x000007ff
    7800:	fffffc01 	.word	0xfffffc01
    7804:	00009890 	.word	0x00009890
    7808:	800fffff 	.word	0x800fffff
    780c:	fffffc0d 	.word	0xfffffc0d
    7810:	000003ff 	.word	0x000003ff
    7814:	feffffff 	.word	0xfeffffff
    7818:	000007fe 	.word	0x000007fe
    781c:	2300      	movs	r3, #0
    781e:	2780      	movs	r7, #128	; 0x80
    7820:	9300      	str	r3, [sp, #0]
    7822:	033f      	lsls	r7, r7, #12
    7824:	2600      	movs	r6, #0
    7826:	4b43      	ldr	r3, [pc, #268]	; (7934 <__aeabi_dmul+0x4d8>)
    7828:	e683      	b.n	7532 <__aeabi_dmul+0xd6>
    782a:	9b01      	ldr	r3, [sp, #4]
    782c:	0032      	movs	r2, r6
    782e:	46a4      	mov	ip, r4
    7830:	4658      	mov	r0, fp
    7832:	e670      	b.n	7516 <__aeabi_dmul+0xba>
    7834:	46ac      	mov	ip, r5
    7836:	e66e      	b.n	7516 <__aeabi_dmul+0xba>
    7838:	2780      	movs	r7, #128	; 0x80
    783a:	9901      	ldr	r1, [sp, #4]
    783c:	033f      	lsls	r7, r7, #12
    783e:	4239      	tst	r1, r7
    7840:	d02d      	beq.n	789e <__aeabi_dmul+0x442>
    7842:	423b      	tst	r3, r7
    7844:	d12b      	bne.n	789e <__aeabi_dmul+0x442>
    7846:	431f      	orrs	r7, r3
    7848:	033f      	lsls	r7, r7, #12
    784a:	0b3f      	lsrs	r7, r7, #12
    784c:	9500      	str	r5, [sp, #0]
    784e:	0016      	movs	r6, r2
    7850:	4b38      	ldr	r3, [pc, #224]	; (7934 <__aeabi_dmul+0x4d8>)
    7852:	e66e      	b.n	7532 <__aeabi_dmul+0xd6>
    7854:	2501      	movs	r5, #1
    7856:	1b2d      	subs	r5, r5, r4
    7858:	2d38      	cmp	r5, #56	; 0x38
    785a:	dd00      	ble.n	785e <__aeabi_dmul+0x402>
    785c:	e666      	b.n	752c <__aeabi_dmul+0xd0>
    785e:	2d1f      	cmp	r5, #31
    7860:	dc40      	bgt.n	78e4 <__aeabi_dmul+0x488>
    7862:	4835      	ldr	r0, [pc, #212]	; (7938 <__aeabi_dmul+0x4dc>)
    7864:	001c      	movs	r4, r3
    7866:	4450      	add	r0, sl
    7868:	0016      	movs	r6, r2
    786a:	4082      	lsls	r2, r0
    786c:	4084      	lsls	r4, r0
    786e:	40ee      	lsrs	r6, r5
    7870:	1e50      	subs	r0, r2, #1
    7872:	4182      	sbcs	r2, r0
    7874:	4334      	orrs	r4, r6
    7876:	4314      	orrs	r4, r2
    7878:	40eb      	lsrs	r3, r5
    787a:	0762      	lsls	r2, r4, #29
    787c:	d009      	beq.n	7892 <__aeabi_dmul+0x436>
    787e:	220f      	movs	r2, #15
    7880:	4022      	ands	r2, r4
    7882:	2a04      	cmp	r2, #4
    7884:	d005      	beq.n	7892 <__aeabi_dmul+0x436>
    7886:	0022      	movs	r2, r4
    7888:	1d14      	adds	r4, r2, #4
    788a:	4294      	cmp	r4, r2
    788c:	4180      	sbcs	r0, r0
    788e:	4240      	negs	r0, r0
    7890:	181b      	adds	r3, r3, r0
    7892:	021a      	lsls	r2, r3, #8
    7894:	d53e      	bpl.n	7914 <__aeabi_dmul+0x4b8>
    7896:	2301      	movs	r3, #1
    7898:	2700      	movs	r7, #0
    789a:	2600      	movs	r6, #0
    789c:	e649      	b.n	7532 <__aeabi_dmul+0xd6>
    789e:	2780      	movs	r7, #128	; 0x80
    78a0:	9b01      	ldr	r3, [sp, #4]
    78a2:	033f      	lsls	r7, r7, #12
    78a4:	431f      	orrs	r7, r3
    78a6:	033f      	lsls	r7, r7, #12
    78a8:	0b3f      	lsrs	r7, r7, #12
    78aa:	9400      	str	r4, [sp, #0]
    78ac:	4b21      	ldr	r3, [pc, #132]	; (7934 <__aeabi_dmul+0x4d8>)
    78ae:	e640      	b.n	7532 <__aeabi_dmul+0xd6>
    78b0:	0003      	movs	r3, r0
    78b2:	465a      	mov	r2, fp
    78b4:	3b28      	subs	r3, #40	; 0x28
    78b6:	409a      	lsls	r2, r3
    78b8:	2600      	movs	r6, #0
    78ba:	9201      	str	r2, [sp, #4]
    78bc:	e66d      	b.n	759a <__aeabi_dmul+0x13e>
    78be:	4658      	mov	r0, fp
    78c0:	f000 fbee 	bl	80a0 <__clzsi2>
    78c4:	3020      	adds	r0, #32
    78c6:	e657      	b.n	7578 <__aeabi_dmul+0x11c>
    78c8:	0003      	movs	r3, r0
    78ca:	4652      	mov	r2, sl
    78cc:	3b28      	subs	r3, #40	; 0x28
    78ce:	409a      	lsls	r2, r3
    78d0:	0013      	movs	r3, r2
    78d2:	2200      	movs	r2, #0
    78d4:	e693      	b.n	75fe <__aeabi_dmul+0x1a2>
    78d6:	4650      	mov	r0, sl
    78d8:	f000 fbe2 	bl	80a0 <__clzsi2>
    78dc:	3020      	adds	r0, #32
    78de:	e67b      	b.n	75d8 <__aeabi_dmul+0x17c>
    78e0:	46ca      	mov	sl, r9
    78e2:	e750      	b.n	7786 <__aeabi_dmul+0x32a>
    78e4:	201f      	movs	r0, #31
    78e6:	001e      	movs	r6, r3
    78e8:	4240      	negs	r0, r0
    78ea:	1b04      	subs	r4, r0, r4
    78ec:	40e6      	lsrs	r6, r4
    78ee:	2d20      	cmp	r5, #32
    78f0:	d003      	beq.n	78fa <__aeabi_dmul+0x49e>
    78f2:	4c12      	ldr	r4, [pc, #72]	; (793c <__aeabi_dmul+0x4e0>)
    78f4:	4454      	add	r4, sl
    78f6:	40a3      	lsls	r3, r4
    78f8:	431a      	orrs	r2, r3
    78fa:	1e50      	subs	r0, r2, #1
    78fc:	4182      	sbcs	r2, r0
    78fe:	4332      	orrs	r2, r6
    7900:	2607      	movs	r6, #7
    7902:	2700      	movs	r7, #0
    7904:	4016      	ands	r6, r2
    7906:	d009      	beq.n	791c <__aeabi_dmul+0x4c0>
    7908:	200f      	movs	r0, #15
    790a:	2300      	movs	r3, #0
    790c:	4010      	ands	r0, r2
    790e:	0014      	movs	r4, r2
    7910:	2804      	cmp	r0, #4
    7912:	d1b9      	bne.n	7888 <__aeabi_dmul+0x42c>
    7914:	0022      	movs	r2, r4
    7916:	075e      	lsls	r6, r3, #29
    7918:	025b      	lsls	r3, r3, #9
    791a:	0b1f      	lsrs	r7, r3, #12
    791c:	08d2      	lsrs	r2, r2, #3
    791e:	4316      	orrs	r6, r2
    7920:	2300      	movs	r3, #0
    7922:	e606      	b.n	7532 <__aeabi_dmul+0xd6>
    7924:	2780      	movs	r7, #128	; 0x80
    7926:	033f      	lsls	r7, r7, #12
    7928:	431f      	orrs	r7, r3
    792a:	033f      	lsls	r7, r7, #12
    792c:	0b3f      	lsrs	r7, r7, #12
    792e:	0016      	movs	r6, r2
    7930:	4b00      	ldr	r3, [pc, #0]	; (7934 <__aeabi_dmul+0x4d8>)
    7932:	e5fe      	b.n	7532 <__aeabi_dmul+0xd6>
    7934:	000007ff 	.word	0x000007ff
    7938:	0000041e 	.word	0x0000041e
    793c:	0000043e 	.word	0x0000043e

00007940 <__aeabi_dsub>:
__aeabi_dsub():
    7940:	b5f8      	push	{r3, r4, r5, r6, r7, lr}
    7942:	4657      	mov	r7, sl
    7944:	464e      	mov	r6, r9
    7946:	4645      	mov	r5, r8
    7948:	46de      	mov	lr, fp
    794a:	000c      	movs	r4, r1
    794c:	0309      	lsls	r1, r1, #12
    794e:	b5e0      	push	{r5, r6, r7, lr}
    7950:	0a49      	lsrs	r1, r1, #9
    7952:	0f46      	lsrs	r6, r0, #29
    7954:	005f      	lsls	r7, r3, #1
    7956:	4331      	orrs	r1, r6
    7958:	031e      	lsls	r6, r3, #12
    795a:	0fdb      	lsrs	r3, r3, #31
    795c:	0a76      	lsrs	r6, r6, #9
    795e:	469b      	mov	fp, r3
    7960:	0f53      	lsrs	r3, r2, #29
    7962:	4333      	orrs	r3, r6
    7964:	4ec8      	ldr	r6, [pc, #800]	; (7c88 <__aeabi_dsub+0x348>)
    7966:	0065      	lsls	r5, r4, #1
    7968:	00c0      	lsls	r0, r0, #3
    796a:	0fe4      	lsrs	r4, r4, #31
    796c:	00d2      	lsls	r2, r2, #3
    796e:	0d6d      	lsrs	r5, r5, #21
    7970:	46a2      	mov	sl, r4
    7972:	4681      	mov	r9, r0
    7974:	0d7f      	lsrs	r7, r7, #21
    7976:	469c      	mov	ip, r3
    7978:	4690      	mov	r8, r2
    797a:	42b7      	cmp	r7, r6
    797c:	d100      	bne.n	7980 <__aeabi_dsub+0x40>
    797e:	e0b9      	b.n	7af4 <__aeabi_dsub+0x1b4>
    7980:	465b      	mov	r3, fp
    7982:	2601      	movs	r6, #1
    7984:	4073      	eors	r3, r6
    7986:	469b      	mov	fp, r3
    7988:	1bee      	subs	r6, r5, r7
    798a:	45a3      	cmp	fp, r4
    798c:	d100      	bne.n	7990 <__aeabi_dsub+0x50>
    798e:	e083      	b.n	7a98 <__aeabi_dsub+0x158>
    7990:	2e00      	cmp	r6, #0
    7992:	dd63      	ble.n	7a5c <__aeabi_dsub+0x11c>
    7994:	2f00      	cmp	r7, #0
    7996:	d000      	beq.n	799a <__aeabi_dsub+0x5a>
    7998:	e0b1      	b.n	7afe <__aeabi_dsub+0x1be>
    799a:	4663      	mov	r3, ip
    799c:	4313      	orrs	r3, r2
    799e:	d100      	bne.n	79a2 <__aeabi_dsub+0x62>
    79a0:	e123      	b.n	7bea <__aeabi_dsub+0x2aa>
    79a2:	1e73      	subs	r3, r6, #1
    79a4:	2b00      	cmp	r3, #0
    79a6:	d000      	beq.n	79aa <__aeabi_dsub+0x6a>
    79a8:	e1ba      	b.n	7d20 <__aeabi_dsub+0x3e0>
    79aa:	1a86      	subs	r6, r0, r2
    79ac:	4663      	mov	r3, ip
    79ae:	42b0      	cmp	r0, r6
    79b0:	4180      	sbcs	r0, r0
    79b2:	2501      	movs	r5, #1
    79b4:	1ac9      	subs	r1, r1, r3
    79b6:	4240      	negs	r0, r0
    79b8:	1a09      	subs	r1, r1, r0
    79ba:	020b      	lsls	r3, r1, #8
    79bc:	d400      	bmi.n	79c0 <__aeabi_dsub+0x80>
    79be:	e147      	b.n	7c50 <__aeabi_dsub+0x310>
    79c0:	0249      	lsls	r1, r1, #9
    79c2:	0a4b      	lsrs	r3, r1, #9
    79c4:	4698      	mov	r8, r3
    79c6:	4643      	mov	r3, r8
    79c8:	2b00      	cmp	r3, #0
    79ca:	d100      	bne.n	79ce <__aeabi_dsub+0x8e>
    79cc:	e189      	b.n	7ce2 <__aeabi_dsub+0x3a2>
    79ce:	4640      	mov	r0, r8
    79d0:	f000 fb66 	bl	80a0 <__clzsi2>
    79d4:	0003      	movs	r3, r0
    79d6:	3b08      	subs	r3, #8
    79d8:	2b1f      	cmp	r3, #31
    79da:	dd00      	ble.n	79de <__aeabi_dsub+0x9e>
    79dc:	e17c      	b.n	7cd8 <__aeabi_dsub+0x398>
    79de:	2220      	movs	r2, #32
    79e0:	0030      	movs	r0, r6
    79e2:	1ad2      	subs	r2, r2, r3
    79e4:	4641      	mov	r1, r8
    79e6:	40d0      	lsrs	r0, r2
    79e8:	4099      	lsls	r1, r3
    79ea:	0002      	movs	r2, r0
    79ec:	409e      	lsls	r6, r3
    79ee:	430a      	orrs	r2, r1
    79f0:	429d      	cmp	r5, r3
    79f2:	dd00      	ble.n	79f6 <__aeabi_dsub+0xb6>
    79f4:	e16a      	b.n	7ccc <__aeabi_dsub+0x38c>
    79f6:	1b5d      	subs	r5, r3, r5
    79f8:	1c6b      	adds	r3, r5, #1
    79fa:	2b1f      	cmp	r3, #31
    79fc:	dd00      	ble.n	7a00 <__aeabi_dsub+0xc0>
    79fe:	e194      	b.n	7d2a <__aeabi_dsub+0x3ea>
    7a00:	2120      	movs	r1, #32
    7a02:	0010      	movs	r0, r2
    7a04:	0035      	movs	r5, r6
    7a06:	1ac9      	subs	r1, r1, r3
    7a08:	408e      	lsls	r6, r1
    7a0a:	40da      	lsrs	r2, r3
    7a0c:	4088      	lsls	r0, r1
    7a0e:	40dd      	lsrs	r5, r3
    7a10:	1e71      	subs	r1, r6, #1
    7a12:	418e      	sbcs	r6, r1
    7a14:	0011      	movs	r1, r2
    7a16:	2207      	movs	r2, #7
    7a18:	4328      	orrs	r0, r5
    7a1a:	2500      	movs	r5, #0
    7a1c:	4306      	orrs	r6, r0
    7a1e:	4032      	ands	r2, r6
    7a20:	2a00      	cmp	r2, #0
    7a22:	d009      	beq.n	7a38 <__aeabi_dsub+0xf8>
    7a24:	230f      	movs	r3, #15
    7a26:	4033      	ands	r3, r6
    7a28:	2b04      	cmp	r3, #4
    7a2a:	d005      	beq.n	7a38 <__aeabi_dsub+0xf8>
    7a2c:	1d33      	adds	r3, r6, #4
    7a2e:	42b3      	cmp	r3, r6
    7a30:	41b6      	sbcs	r6, r6
    7a32:	4276      	negs	r6, r6
    7a34:	1989      	adds	r1, r1, r6
    7a36:	001e      	movs	r6, r3
    7a38:	020b      	lsls	r3, r1, #8
    7a3a:	d400      	bmi.n	7a3e <__aeabi_dsub+0xfe>
    7a3c:	e23d      	b.n	7eba <__aeabi_dsub+0x57a>
    7a3e:	1c6a      	adds	r2, r5, #1
    7a40:	4b91      	ldr	r3, [pc, #580]	; (7c88 <__aeabi_dsub+0x348>)
    7a42:	0555      	lsls	r5, r2, #21
    7a44:	0d6d      	lsrs	r5, r5, #21
    7a46:	429a      	cmp	r2, r3
    7a48:	d100      	bne.n	7a4c <__aeabi_dsub+0x10c>
    7a4a:	e119      	b.n	7c80 <__aeabi_dsub+0x340>
    7a4c:	4a8f      	ldr	r2, [pc, #572]	; (7c8c <__aeabi_dsub+0x34c>)
    7a4e:	08f6      	lsrs	r6, r6, #3
    7a50:	400a      	ands	r2, r1
    7a52:	0757      	lsls	r7, r2, #29
    7a54:	0252      	lsls	r2, r2, #9
    7a56:	4337      	orrs	r7, r6
    7a58:	0b12      	lsrs	r2, r2, #12
    7a5a:	e09b      	b.n	7b94 <__aeabi_dsub+0x254>
    7a5c:	2e00      	cmp	r6, #0
    7a5e:	d000      	beq.n	7a62 <__aeabi_dsub+0x122>
    7a60:	e0c5      	b.n	7bee <__aeabi_dsub+0x2ae>
    7a62:	1c6e      	adds	r6, r5, #1
    7a64:	0576      	lsls	r6, r6, #21
    7a66:	0d76      	lsrs	r6, r6, #21
    7a68:	2e01      	cmp	r6, #1
    7a6a:	dc00      	bgt.n	7a6e <__aeabi_dsub+0x12e>
    7a6c:	e148      	b.n	7d00 <__aeabi_dsub+0x3c0>
    7a6e:	4667      	mov	r7, ip
    7a70:	1a86      	subs	r6, r0, r2
    7a72:	1bcb      	subs	r3, r1, r7
    7a74:	42b0      	cmp	r0, r6
    7a76:	41bf      	sbcs	r7, r7
    7a78:	427f      	negs	r7, r7
    7a7a:	46b8      	mov	r8, r7
    7a7c:	001f      	movs	r7, r3
    7a7e:	4643      	mov	r3, r8
    7a80:	1aff      	subs	r7, r7, r3
    7a82:	003b      	movs	r3, r7
    7a84:	46b8      	mov	r8, r7
    7a86:	021b      	lsls	r3, r3, #8
    7a88:	d500      	bpl.n	7a8c <__aeabi_dsub+0x14c>
    7a8a:	e15f      	b.n	7d4c <__aeabi_dsub+0x40c>
    7a8c:	4337      	orrs	r7, r6
    7a8e:	d19a      	bne.n	79c6 <__aeabi_dsub+0x86>
    7a90:	2200      	movs	r2, #0
    7a92:	2400      	movs	r4, #0
    7a94:	2500      	movs	r5, #0
    7a96:	e079      	b.n	7b8c <__aeabi_dsub+0x24c>
    7a98:	2e00      	cmp	r6, #0
    7a9a:	dc00      	bgt.n	7a9e <__aeabi_dsub+0x15e>
    7a9c:	e0fa      	b.n	7c94 <__aeabi_dsub+0x354>
    7a9e:	2f00      	cmp	r7, #0
    7aa0:	d100      	bne.n	7aa4 <__aeabi_dsub+0x164>
    7aa2:	e08d      	b.n	7bc0 <__aeabi_dsub+0x280>
    7aa4:	4b78      	ldr	r3, [pc, #480]	; (7c88 <__aeabi_dsub+0x348>)
    7aa6:	429d      	cmp	r5, r3
    7aa8:	d067      	beq.n	7b7a <__aeabi_dsub+0x23a>
    7aaa:	2380      	movs	r3, #128	; 0x80
    7aac:	4667      	mov	r7, ip
    7aae:	041b      	lsls	r3, r3, #16
    7ab0:	431f      	orrs	r7, r3
    7ab2:	46bc      	mov	ip, r7
    7ab4:	2e38      	cmp	r6, #56	; 0x38
    7ab6:	dc00      	bgt.n	7aba <__aeabi_dsub+0x17a>
    7ab8:	e152      	b.n	7d60 <__aeabi_dsub+0x420>
    7aba:	4663      	mov	r3, ip
    7abc:	4313      	orrs	r3, r2
    7abe:	1e5a      	subs	r2, r3, #1
    7ac0:	4193      	sbcs	r3, r2
    7ac2:	181e      	adds	r6, r3, r0
    7ac4:	4286      	cmp	r6, r0
    7ac6:	4180      	sbcs	r0, r0
    7ac8:	4240      	negs	r0, r0
    7aca:	1809      	adds	r1, r1, r0
    7acc:	020b      	lsls	r3, r1, #8
    7ace:	d400      	bmi.n	7ad2 <__aeabi_dsub+0x192>
    7ad0:	e0be      	b.n	7c50 <__aeabi_dsub+0x310>
    7ad2:	4b6d      	ldr	r3, [pc, #436]	; (7c88 <__aeabi_dsub+0x348>)
    7ad4:	3501      	adds	r5, #1
    7ad6:	429d      	cmp	r5, r3
    7ad8:	d100      	bne.n	7adc <__aeabi_dsub+0x19c>
    7ada:	e0d2      	b.n	7c82 <__aeabi_dsub+0x342>
    7adc:	4a6b      	ldr	r2, [pc, #428]	; (7c8c <__aeabi_dsub+0x34c>)
    7ade:	0873      	lsrs	r3, r6, #1
    7ae0:	400a      	ands	r2, r1
    7ae2:	2101      	movs	r1, #1
    7ae4:	400e      	ands	r6, r1
    7ae6:	431e      	orrs	r6, r3
    7ae8:	0851      	lsrs	r1, r2, #1
    7aea:	07d3      	lsls	r3, r2, #31
    7aec:	2207      	movs	r2, #7
    7aee:	431e      	orrs	r6, r3
    7af0:	4032      	ands	r2, r6
    7af2:	e795      	b.n	7a20 <__aeabi_dsub+0xe0>
    7af4:	001e      	movs	r6, r3
    7af6:	4316      	orrs	r6, r2
    7af8:	d000      	beq.n	7afc <__aeabi_dsub+0x1bc>
    7afa:	e745      	b.n	7988 <__aeabi_dsub+0x48>
    7afc:	e740      	b.n	7980 <__aeabi_dsub+0x40>
    7afe:	4b62      	ldr	r3, [pc, #392]	; (7c88 <__aeabi_dsub+0x348>)
    7b00:	429d      	cmp	r5, r3
    7b02:	d03a      	beq.n	7b7a <__aeabi_dsub+0x23a>
    7b04:	2380      	movs	r3, #128	; 0x80
    7b06:	4667      	mov	r7, ip
    7b08:	041b      	lsls	r3, r3, #16
    7b0a:	431f      	orrs	r7, r3
    7b0c:	46bc      	mov	ip, r7
    7b0e:	2e38      	cmp	r6, #56	; 0x38
    7b10:	dd00      	ble.n	7b14 <__aeabi_dsub+0x1d4>
    7b12:	e0eb      	b.n	7cec <__aeabi_dsub+0x3ac>
    7b14:	2e1f      	cmp	r6, #31
    7b16:	dc00      	bgt.n	7b1a <__aeabi_dsub+0x1da>
    7b18:	e13a      	b.n	7d90 <__aeabi_dsub+0x450>
    7b1a:	0033      	movs	r3, r6
    7b1c:	4667      	mov	r7, ip
    7b1e:	3b20      	subs	r3, #32
    7b20:	40df      	lsrs	r7, r3
    7b22:	003b      	movs	r3, r7
    7b24:	2e20      	cmp	r6, #32
    7b26:	d005      	beq.n	7b34 <__aeabi_dsub+0x1f4>
    7b28:	2740      	movs	r7, #64	; 0x40
    7b2a:	1bbf      	subs	r7, r7, r6
    7b2c:	4666      	mov	r6, ip
    7b2e:	40be      	lsls	r6, r7
    7b30:	4332      	orrs	r2, r6
    7b32:	4690      	mov	r8, r2
    7b34:	4646      	mov	r6, r8
    7b36:	1e72      	subs	r2, r6, #1
    7b38:	4196      	sbcs	r6, r2
    7b3a:	4333      	orrs	r3, r6
    7b3c:	e0da      	b.n	7cf4 <__aeabi_dsub+0x3b4>
    7b3e:	2b00      	cmp	r3, #0
    7b40:	d100      	bne.n	7b44 <__aeabi_dsub+0x204>
    7b42:	e214      	b.n	7f6e <__aeabi_dsub+0x62e>
    7b44:	4663      	mov	r3, ip
    7b46:	4313      	orrs	r3, r2
    7b48:	d100      	bne.n	7b4c <__aeabi_dsub+0x20c>
    7b4a:	e168      	b.n	7e1e <__aeabi_dsub+0x4de>
    7b4c:	2380      	movs	r3, #128	; 0x80
    7b4e:	074e      	lsls	r6, r1, #29
    7b50:	08c0      	lsrs	r0, r0, #3
    7b52:	08c9      	lsrs	r1, r1, #3
    7b54:	031b      	lsls	r3, r3, #12
    7b56:	4306      	orrs	r6, r0
    7b58:	4219      	tst	r1, r3
    7b5a:	d008      	beq.n	7b6e <__aeabi_dsub+0x22e>
    7b5c:	4660      	mov	r0, ip
    7b5e:	08c0      	lsrs	r0, r0, #3
    7b60:	4218      	tst	r0, r3
    7b62:	d104      	bne.n	7b6e <__aeabi_dsub+0x22e>
    7b64:	4663      	mov	r3, ip
    7b66:	0001      	movs	r1, r0
    7b68:	08d2      	lsrs	r2, r2, #3
    7b6a:	075e      	lsls	r6, r3, #29
    7b6c:	4316      	orrs	r6, r2
    7b6e:	00f3      	lsls	r3, r6, #3
    7b70:	4699      	mov	r9, r3
    7b72:	00c9      	lsls	r1, r1, #3
    7b74:	0f72      	lsrs	r2, r6, #29
    7b76:	4d44      	ldr	r5, [pc, #272]	; (7c88 <__aeabi_dsub+0x348>)
    7b78:	4311      	orrs	r1, r2
    7b7a:	464b      	mov	r3, r9
    7b7c:	08de      	lsrs	r6, r3, #3
    7b7e:	4b42      	ldr	r3, [pc, #264]	; (7c88 <__aeabi_dsub+0x348>)
    7b80:	074f      	lsls	r7, r1, #29
    7b82:	4337      	orrs	r7, r6
    7b84:	08ca      	lsrs	r2, r1, #3
    7b86:	429d      	cmp	r5, r3
    7b88:	d100      	bne.n	7b8c <__aeabi_dsub+0x24c>
    7b8a:	e06e      	b.n	7c6a <__aeabi_dsub+0x32a>
    7b8c:	0312      	lsls	r2, r2, #12
    7b8e:	056d      	lsls	r5, r5, #21
    7b90:	0b12      	lsrs	r2, r2, #12
    7b92:	0d6d      	lsrs	r5, r5, #21
    7b94:	2100      	movs	r1, #0
    7b96:	0312      	lsls	r2, r2, #12
    7b98:	0b13      	lsrs	r3, r2, #12
    7b9a:	0d0a      	lsrs	r2, r1, #20
    7b9c:	0512      	lsls	r2, r2, #20
    7b9e:	431a      	orrs	r2, r3
    7ba0:	4b3b      	ldr	r3, [pc, #236]	; (7c90 <__aeabi_dsub+0x350>)
    7ba2:	052d      	lsls	r5, r5, #20
    7ba4:	4013      	ands	r3, r2
    7ba6:	432b      	orrs	r3, r5
    7ba8:	005b      	lsls	r3, r3, #1
    7baa:	07e4      	lsls	r4, r4, #31
    7bac:	085b      	lsrs	r3, r3, #1
    7bae:	4323      	orrs	r3, r4
    7bb0:	0038      	movs	r0, r7
    7bb2:	0019      	movs	r1, r3
    7bb4:	bc3c      	pop	{r2, r3, r4, r5}
    7bb6:	4690      	mov	r8, r2
    7bb8:	4699      	mov	r9, r3
    7bba:	46a2      	mov	sl, r4
    7bbc:	46ab      	mov	fp, r5
    7bbe:	bdf8      	pop	{r3, r4, r5, r6, r7, pc}
    7bc0:	4663      	mov	r3, ip
    7bc2:	4313      	orrs	r3, r2
    7bc4:	d011      	beq.n	7bea <__aeabi_dsub+0x2aa>
    7bc6:	1e73      	subs	r3, r6, #1
    7bc8:	2b00      	cmp	r3, #0
    7bca:	d000      	beq.n	7bce <__aeabi_dsub+0x28e>
    7bcc:	e107      	b.n	7dde <__aeabi_dsub+0x49e>
    7bce:	1886      	adds	r6, r0, r2
    7bd0:	4286      	cmp	r6, r0
    7bd2:	4180      	sbcs	r0, r0
    7bd4:	4461      	add	r1, ip
    7bd6:	4240      	negs	r0, r0
    7bd8:	1809      	adds	r1, r1, r0
    7bda:	2501      	movs	r5, #1
    7bdc:	020b      	lsls	r3, r1, #8
    7bde:	d537      	bpl.n	7c50 <__aeabi_dsub+0x310>
    7be0:	2502      	movs	r5, #2
    7be2:	e77b      	b.n	7adc <__aeabi_dsub+0x19c>
    7be4:	003e      	movs	r6, r7
    7be6:	4661      	mov	r1, ip
    7be8:	4691      	mov	r9, r2
    7bea:	0035      	movs	r5, r6
    7bec:	e7c5      	b.n	7b7a <__aeabi_dsub+0x23a>
    7bee:	465c      	mov	r4, fp
    7bf0:	2d00      	cmp	r5, #0
    7bf2:	d000      	beq.n	7bf6 <__aeabi_dsub+0x2b6>
    7bf4:	e0e1      	b.n	7dba <__aeabi_dsub+0x47a>
    7bf6:	000b      	movs	r3, r1
    7bf8:	4303      	orrs	r3, r0
    7bfa:	d0f3      	beq.n	7be4 <__aeabi_dsub+0x2a4>
    7bfc:	1c73      	adds	r3, r6, #1
    7bfe:	d100      	bne.n	7c02 <__aeabi_dsub+0x2c2>
    7c00:	e1ac      	b.n	7f5c <__aeabi_dsub+0x61c>
    7c02:	4b21      	ldr	r3, [pc, #132]	; (7c88 <__aeabi_dsub+0x348>)
    7c04:	429f      	cmp	r7, r3
    7c06:	d100      	bne.n	7c0a <__aeabi_dsub+0x2ca>
    7c08:	e13a      	b.n	7e80 <__aeabi_dsub+0x540>
    7c0a:	43f3      	mvns	r3, r6
    7c0c:	2b38      	cmp	r3, #56	; 0x38
    7c0e:	dd00      	ble.n	7c12 <__aeabi_dsub+0x2d2>
    7c10:	e16f      	b.n	7ef2 <__aeabi_dsub+0x5b2>
    7c12:	2b1f      	cmp	r3, #31
    7c14:	dd00      	ble.n	7c18 <__aeabi_dsub+0x2d8>
    7c16:	e18c      	b.n	7f32 <__aeabi_dsub+0x5f2>
    7c18:	2520      	movs	r5, #32
    7c1a:	000e      	movs	r6, r1
    7c1c:	1aed      	subs	r5, r5, r3
    7c1e:	40ae      	lsls	r6, r5
    7c20:	46b0      	mov	r8, r6
    7c22:	0006      	movs	r6, r0
    7c24:	46aa      	mov	sl, r5
    7c26:	40de      	lsrs	r6, r3
    7c28:	4645      	mov	r5, r8
    7c2a:	4335      	orrs	r5, r6
    7c2c:	002e      	movs	r6, r5
    7c2e:	4655      	mov	r5, sl
    7c30:	40d9      	lsrs	r1, r3
    7c32:	40a8      	lsls	r0, r5
    7c34:	4663      	mov	r3, ip
    7c36:	1e45      	subs	r5, r0, #1
    7c38:	41a8      	sbcs	r0, r5
    7c3a:	1a5b      	subs	r3, r3, r1
    7c3c:	469c      	mov	ip, r3
    7c3e:	4330      	orrs	r0, r6
    7c40:	1a16      	subs	r6, r2, r0
    7c42:	42b2      	cmp	r2, r6
    7c44:	4192      	sbcs	r2, r2
    7c46:	4663      	mov	r3, ip
    7c48:	4252      	negs	r2, r2
    7c4a:	1a99      	subs	r1, r3, r2
    7c4c:	003d      	movs	r5, r7
    7c4e:	e6b4      	b.n	79ba <__aeabi_dsub+0x7a>
    7c50:	2207      	movs	r2, #7
    7c52:	4032      	ands	r2, r6
    7c54:	2a00      	cmp	r2, #0
    7c56:	d000      	beq.n	7c5a <__aeabi_dsub+0x31a>
    7c58:	e6e4      	b.n	7a24 <__aeabi_dsub+0xe4>
    7c5a:	4b0b      	ldr	r3, [pc, #44]	; (7c88 <__aeabi_dsub+0x348>)
    7c5c:	08f6      	lsrs	r6, r6, #3
    7c5e:	074f      	lsls	r7, r1, #29
    7c60:	4337      	orrs	r7, r6
    7c62:	08ca      	lsrs	r2, r1, #3
    7c64:	429d      	cmp	r5, r3
    7c66:	d000      	beq.n	7c6a <__aeabi_dsub+0x32a>
    7c68:	e790      	b.n	7b8c <__aeabi_dsub+0x24c>
    7c6a:	003b      	movs	r3, r7
    7c6c:	4313      	orrs	r3, r2
    7c6e:	d100      	bne.n	7c72 <__aeabi_dsub+0x332>
    7c70:	e1a6      	b.n	7fc0 <__aeabi_dsub+0x680>
    7c72:	2380      	movs	r3, #128	; 0x80
    7c74:	031b      	lsls	r3, r3, #12
    7c76:	431a      	orrs	r2, r3
    7c78:	0312      	lsls	r2, r2, #12
    7c7a:	0b12      	lsrs	r2, r2, #12
    7c7c:	4d02      	ldr	r5, [pc, #8]	; (7c88 <__aeabi_dsub+0x348>)
    7c7e:	e789      	b.n	7b94 <__aeabi_dsub+0x254>
    7c80:	0015      	movs	r5, r2
    7c82:	2200      	movs	r2, #0
    7c84:	2700      	movs	r7, #0
    7c86:	e785      	b.n	7b94 <__aeabi_dsub+0x254>
    7c88:	000007ff 	.word	0x000007ff
    7c8c:	ff7fffff 	.word	0xff7fffff
    7c90:	800fffff 	.word	0x800fffff
    7c94:	2e00      	cmp	r6, #0
    7c96:	d000      	beq.n	7c9a <__aeabi_dsub+0x35a>
    7c98:	e0c7      	b.n	7e2a <__aeabi_dsub+0x4ea>
    7c9a:	1c6b      	adds	r3, r5, #1
    7c9c:	055e      	lsls	r6, r3, #21
    7c9e:	0d76      	lsrs	r6, r6, #21
    7ca0:	2e01      	cmp	r6, #1
    7ca2:	dc00      	bgt.n	7ca6 <__aeabi_dsub+0x366>
    7ca4:	e0f0      	b.n	7e88 <__aeabi_dsub+0x548>
    7ca6:	4dc8      	ldr	r5, [pc, #800]	; (7fc8 <__aeabi_dsub+0x688>)
    7ca8:	42ab      	cmp	r3, r5
    7caa:	d100      	bne.n	7cae <__aeabi_dsub+0x36e>
    7cac:	e0b9      	b.n	7e22 <__aeabi_dsub+0x4e2>
    7cae:	1885      	adds	r5, r0, r2
    7cb0:	000a      	movs	r2, r1
    7cb2:	4285      	cmp	r5, r0
    7cb4:	4189      	sbcs	r1, r1
    7cb6:	4462      	add	r2, ip
    7cb8:	4249      	negs	r1, r1
    7cba:	1851      	adds	r1, r2, r1
    7cbc:	2207      	movs	r2, #7
    7cbe:	07ce      	lsls	r6, r1, #31
    7cc0:	086d      	lsrs	r5, r5, #1
    7cc2:	432e      	orrs	r6, r5
    7cc4:	0849      	lsrs	r1, r1, #1
    7cc6:	4032      	ands	r2, r6
    7cc8:	001d      	movs	r5, r3
    7cca:	e6a9      	b.n	7a20 <__aeabi_dsub+0xe0>
    7ccc:	49bf      	ldr	r1, [pc, #764]	; (7fcc <__aeabi_dsub+0x68c>)
    7cce:	1aed      	subs	r5, r5, r3
    7cd0:	4011      	ands	r1, r2
    7cd2:	2207      	movs	r2, #7
    7cd4:	4032      	ands	r2, r6
    7cd6:	e6a3      	b.n	7a20 <__aeabi_dsub+0xe0>
    7cd8:	0032      	movs	r2, r6
    7cda:	3828      	subs	r0, #40	; 0x28
    7cdc:	4082      	lsls	r2, r0
    7cde:	2600      	movs	r6, #0
    7ce0:	e686      	b.n	79f0 <__aeabi_dsub+0xb0>
    7ce2:	0030      	movs	r0, r6
    7ce4:	f000 f9dc 	bl	80a0 <__clzsi2>
    7ce8:	3020      	adds	r0, #32
    7cea:	e673      	b.n	79d4 <__aeabi_dsub+0x94>
    7cec:	4663      	mov	r3, ip
    7cee:	4313      	orrs	r3, r2
    7cf0:	1e5a      	subs	r2, r3, #1
    7cf2:	4193      	sbcs	r3, r2
    7cf4:	1ac6      	subs	r6, r0, r3
    7cf6:	42b0      	cmp	r0, r6
    7cf8:	4180      	sbcs	r0, r0
    7cfa:	4240      	negs	r0, r0
    7cfc:	1a09      	subs	r1, r1, r0
    7cfe:	e65c      	b.n	79ba <__aeabi_dsub+0x7a>
    7d00:	000e      	movs	r6, r1
    7d02:	4667      	mov	r7, ip
    7d04:	4306      	orrs	r6, r0
    7d06:	4317      	orrs	r7, r2
    7d08:	2d00      	cmp	r5, #0
    7d0a:	d15e      	bne.n	7dca <__aeabi_dsub+0x48a>
    7d0c:	2e00      	cmp	r6, #0
    7d0e:	d000      	beq.n	7d12 <__aeabi_dsub+0x3d2>
    7d10:	e0f3      	b.n	7efa <__aeabi_dsub+0x5ba>
    7d12:	2f00      	cmp	r7, #0
    7d14:	d100      	bne.n	7d18 <__aeabi_dsub+0x3d8>
    7d16:	e11e      	b.n	7f56 <__aeabi_dsub+0x616>
    7d18:	465c      	mov	r4, fp
    7d1a:	4661      	mov	r1, ip
    7d1c:	4691      	mov	r9, r2
    7d1e:	e72c      	b.n	7b7a <__aeabi_dsub+0x23a>
    7d20:	4fa9      	ldr	r7, [pc, #676]	; (7fc8 <__aeabi_dsub+0x688>)
    7d22:	42be      	cmp	r6, r7
    7d24:	d07b      	beq.n	7e1e <__aeabi_dsub+0x4de>
    7d26:	001e      	movs	r6, r3
    7d28:	e6f1      	b.n	7b0e <__aeabi_dsub+0x1ce>
    7d2a:	0010      	movs	r0, r2
    7d2c:	3d1f      	subs	r5, #31
    7d2e:	40e8      	lsrs	r0, r5
    7d30:	2b20      	cmp	r3, #32
    7d32:	d003      	beq.n	7d3c <__aeabi_dsub+0x3fc>
    7d34:	2140      	movs	r1, #64	; 0x40
    7d36:	1acb      	subs	r3, r1, r3
    7d38:	409a      	lsls	r2, r3
    7d3a:	4316      	orrs	r6, r2
    7d3c:	1e73      	subs	r3, r6, #1
    7d3e:	419e      	sbcs	r6, r3
    7d40:	2207      	movs	r2, #7
    7d42:	4306      	orrs	r6, r0
    7d44:	4032      	ands	r2, r6
    7d46:	2100      	movs	r1, #0
    7d48:	2500      	movs	r5, #0
    7d4a:	e783      	b.n	7c54 <__aeabi_dsub+0x314>
    7d4c:	1a16      	subs	r6, r2, r0
    7d4e:	4663      	mov	r3, ip
    7d50:	42b2      	cmp	r2, r6
    7d52:	4180      	sbcs	r0, r0
    7d54:	1a59      	subs	r1, r3, r1
    7d56:	4240      	negs	r0, r0
    7d58:	1a0b      	subs	r3, r1, r0
    7d5a:	4698      	mov	r8, r3
    7d5c:	465c      	mov	r4, fp
    7d5e:	e632      	b.n	79c6 <__aeabi_dsub+0x86>
    7d60:	2e1f      	cmp	r6, #31
    7d62:	dd00      	ble.n	7d66 <__aeabi_dsub+0x426>
    7d64:	e0ab      	b.n	7ebe <__aeabi_dsub+0x57e>
    7d66:	2720      	movs	r7, #32
    7d68:	1bbb      	subs	r3, r7, r6
    7d6a:	469a      	mov	sl, r3
    7d6c:	4663      	mov	r3, ip
    7d6e:	4657      	mov	r7, sl
    7d70:	40bb      	lsls	r3, r7
    7d72:	4699      	mov	r9, r3
    7d74:	0013      	movs	r3, r2
    7d76:	464f      	mov	r7, r9
    7d78:	40f3      	lsrs	r3, r6
    7d7a:	431f      	orrs	r7, r3
    7d7c:	003b      	movs	r3, r7
    7d7e:	4657      	mov	r7, sl
    7d80:	40ba      	lsls	r2, r7
    7d82:	1e57      	subs	r7, r2, #1
    7d84:	41ba      	sbcs	r2, r7
    7d86:	4313      	orrs	r3, r2
    7d88:	4662      	mov	r2, ip
    7d8a:	40f2      	lsrs	r2, r6
    7d8c:	1889      	adds	r1, r1, r2
    7d8e:	e698      	b.n	7ac2 <__aeabi_dsub+0x182>
    7d90:	2720      	movs	r7, #32
    7d92:	1bbb      	subs	r3, r7, r6
    7d94:	469a      	mov	sl, r3
    7d96:	4663      	mov	r3, ip
    7d98:	4657      	mov	r7, sl
    7d9a:	40bb      	lsls	r3, r7
    7d9c:	4699      	mov	r9, r3
    7d9e:	0013      	movs	r3, r2
    7da0:	464f      	mov	r7, r9
    7da2:	40f3      	lsrs	r3, r6
    7da4:	431f      	orrs	r7, r3
    7da6:	003b      	movs	r3, r7
    7da8:	4657      	mov	r7, sl
    7daa:	40ba      	lsls	r2, r7
    7dac:	1e57      	subs	r7, r2, #1
    7dae:	41ba      	sbcs	r2, r7
    7db0:	4313      	orrs	r3, r2
    7db2:	4662      	mov	r2, ip
    7db4:	40f2      	lsrs	r2, r6
    7db6:	1a89      	subs	r1, r1, r2
    7db8:	e79c      	b.n	7cf4 <__aeabi_dsub+0x3b4>
    7dba:	4b83      	ldr	r3, [pc, #524]	; (7fc8 <__aeabi_dsub+0x688>)
    7dbc:	429f      	cmp	r7, r3
    7dbe:	d05f      	beq.n	7e80 <__aeabi_dsub+0x540>
    7dc0:	2580      	movs	r5, #128	; 0x80
    7dc2:	042d      	lsls	r5, r5, #16
    7dc4:	4273      	negs	r3, r6
    7dc6:	4329      	orrs	r1, r5
    7dc8:	e720      	b.n	7c0c <__aeabi_dsub+0x2cc>
    7dca:	2e00      	cmp	r6, #0
    7dcc:	d10c      	bne.n	7de8 <__aeabi_dsub+0x4a8>
    7dce:	2f00      	cmp	r7, #0
    7dd0:	d100      	bne.n	7dd4 <__aeabi_dsub+0x494>
    7dd2:	e0d0      	b.n	7f76 <__aeabi_dsub+0x636>
    7dd4:	465c      	mov	r4, fp
    7dd6:	4661      	mov	r1, ip
    7dd8:	4691      	mov	r9, r2
    7dda:	4d7b      	ldr	r5, [pc, #492]	; (7fc8 <__aeabi_dsub+0x688>)
    7ddc:	e6cd      	b.n	7b7a <__aeabi_dsub+0x23a>
    7dde:	4f7a      	ldr	r7, [pc, #488]	; (7fc8 <__aeabi_dsub+0x688>)
    7de0:	42be      	cmp	r6, r7
    7de2:	d01c      	beq.n	7e1e <__aeabi_dsub+0x4de>
    7de4:	001e      	movs	r6, r3
    7de6:	e665      	b.n	7ab4 <__aeabi_dsub+0x174>
    7de8:	2f00      	cmp	r7, #0
    7dea:	d018      	beq.n	7e1e <__aeabi_dsub+0x4de>
    7dec:	08c0      	lsrs	r0, r0, #3
    7dee:	074e      	lsls	r6, r1, #29
    7df0:	4306      	orrs	r6, r0
    7df2:	2080      	movs	r0, #128	; 0x80
    7df4:	08c9      	lsrs	r1, r1, #3
    7df6:	0300      	lsls	r0, r0, #12
    7df8:	4201      	tst	r1, r0
    7dfa:	d008      	beq.n	7e0e <__aeabi_dsub+0x4ce>
    7dfc:	4663      	mov	r3, ip
    7dfe:	08dc      	lsrs	r4, r3, #3
    7e00:	4204      	tst	r4, r0
    7e02:	d104      	bne.n	7e0e <__aeabi_dsub+0x4ce>
    7e04:	0021      	movs	r1, r4
    7e06:	46da      	mov	sl, fp
    7e08:	08d2      	lsrs	r2, r2, #3
    7e0a:	075e      	lsls	r6, r3, #29
    7e0c:	4316      	orrs	r6, r2
    7e0e:	00f3      	lsls	r3, r6, #3
    7e10:	4699      	mov	r9, r3
    7e12:	2401      	movs	r4, #1
    7e14:	4653      	mov	r3, sl
    7e16:	00c9      	lsls	r1, r1, #3
    7e18:	0f72      	lsrs	r2, r6, #29
    7e1a:	4311      	orrs	r1, r2
    7e1c:	401c      	ands	r4, r3
    7e1e:	4d6a      	ldr	r5, [pc, #424]	; (7fc8 <__aeabi_dsub+0x688>)
    7e20:	e6ab      	b.n	7b7a <__aeabi_dsub+0x23a>
    7e22:	001d      	movs	r5, r3
    7e24:	2200      	movs	r2, #0
    7e26:	2700      	movs	r7, #0
    7e28:	e6b4      	b.n	7b94 <__aeabi_dsub+0x254>
    7e2a:	2d00      	cmp	r5, #0
    7e2c:	d159      	bne.n	7ee2 <__aeabi_dsub+0x5a2>
    7e2e:	000b      	movs	r3, r1
    7e30:	4303      	orrs	r3, r0
    7e32:	d100      	bne.n	7e36 <__aeabi_dsub+0x4f6>
    7e34:	e6d6      	b.n	7be4 <__aeabi_dsub+0x2a4>
    7e36:	1c73      	adds	r3, r6, #1
    7e38:	d100      	bne.n	7e3c <__aeabi_dsub+0x4fc>
    7e3a:	e0b2      	b.n	7fa2 <__aeabi_dsub+0x662>
    7e3c:	4b62      	ldr	r3, [pc, #392]	; (7fc8 <__aeabi_dsub+0x688>)
    7e3e:	429f      	cmp	r7, r3
    7e40:	d01e      	beq.n	7e80 <__aeabi_dsub+0x540>
    7e42:	43f3      	mvns	r3, r6
    7e44:	2b38      	cmp	r3, #56	; 0x38
    7e46:	dc6f      	bgt.n	7f28 <__aeabi_dsub+0x5e8>
    7e48:	2b1f      	cmp	r3, #31
    7e4a:	dd00      	ble.n	7e4e <__aeabi_dsub+0x50e>
    7e4c:	e097      	b.n	7f7e <__aeabi_dsub+0x63e>
    7e4e:	2520      	movs	r5, #32
    7e50:	000e      	movs	r6, r1
    7e52:	1aed      	subs	r5, r5, r3
    7e54:	40ae      	lsls	r6, r5
    7e56:	46b0      	mov	r8, r6
    7e58:	0006      	movs	r6, r0
    7e5a:	46aa      	mov	sl, r5
    7e5c:	40de      	lsrs	r6, r3
    7e5e:	4645      	mov	r5, r8
    7e60:	4335      	orrs	r5, r6
    7e62:	002e      	movs	r6, r5
    7e64:	4655      	mov	r5, sl
    7e66:	40a8      	lsls	r0, r5
    7e68:	40d9      	lsrs	r1, r3
    7e6a:	1e45      	subs	r5, r0, #1
    7e6c:	41a8      	sbcs	r0, r5
    7e6e:	448c      	add	ip, r1
    7e70:	4306      	orrs	r6, r0
    7e72:	18b6      	adds	r6, r6, r2
    7e74:	4296      	cmp	r6, r2
    7e76:	4192      	sbcs	r2, r2
    7e78:	4251      	negs	r1, r2
    7e7a:	4461      	add	r1, ip
    7e7c:	003d      	movs	r5, r7
    7e7e:	e625      	b.n	7acc <__aeabi_dsub+0x18c>
    7e80:	003d      	movs	r5, r7
    7e82:	4661      	mov	r1, ip
    7e84:	4691      	mov	r9, r2
    7e86:	e678      	b.n	7b7a <__aeabi_dsub+0x23a>
    7e88:	000b      	movs	r3, r1
    7e8a:	4303      	orrs	r3, r0
    7e8c:	2d00      	cmp	r5, #0
    7e8e:	d000      	beq.n	7e92 <__aeabi_dsub+0x552>
    7e90:	e655      	b.n	7b3e <__aeabi_dsub+0x1fe>
    7e92:	2b00      	cmp	r3, #0
    7e94:	d0f5      	beq.n	7e82 <__aeabi_dsub+0x542>
    7e96:	4663      	mov	r3, ip
    7e98:	4313      	orrs	r3, r2
    7e9a:	d100      	bne.n	7e9e <__aeabi_dsub+0x55e>
    7e9c:	e66d      	b.n	7b7a <__aeabi_dsub+0x23a>
    7e9e:	1886      	adds	r6, r0, r2
    7ea0:	4286      	cmp	r6, r0
    7ea2:	4180      	sbcs	r0, r0
    7ea4:	4461      	add	r1, ip
    7ea6:	4240      	negs	r0, r0
    7ea8:	1809      	adds	r1, r1, r0
    7eaa:	2200      	movs	r2, #0
    7eac:	020b      	lsls	r3, r1, #8
    7eae:	d400      	bmi.n	7eb2 <__aeabi_dsub+0x572>
    7eb0:	e6d0      	b.n	7c54 <__aeabi_dsub+0x314>
    7eb2:	4b46      	ldr	r3, [pc, #280]	; (7fcc <__aeabi_dsub+0x68c>)
    7eb4:	3501      	adds	r5, #1
    7eb6:	4019      	ands	r1, r3
    7eb8:	e5b2      	b.n	7a20 <__aeabi_dsub+0xe0>
    7eba:	46b1      	mov	r9, r6
    7ebc:	e65d      	b.n	7b7a <__aeabi_dsub+0x23a>
    7ebe:	0033      	movs	r3, r6
    7ec0:	4667      	mov	r7, ip
    7ec2:	3b20      	subs	r3, #32
    7ec4:	40df      	lsrs	r7, r3
    7ec6:	003b      	movs	r3, r7
    7ec8:	2e20      	cmp	r6, #32
    7eca:	d005      	beq.n	7ed8 <__aeabi_dsub+0x598>
    7ecc:	2740      	movs	r7, #64	; 0x40
    7ece:	1bbf      	subs	r7, r7, r6
    7ed0:	4666      	mov	r6, ip
    7ed2:	40be      	lsls	r6, r7
    7ed4:	4332      	orrs	r2, r6
    7ed6:	4690      	mov	r8, r2
    7ed8:	4646      	mov	r6, r8
    7eda:	1e72      	subs	r2, r6, #1
    7edc:	4196      	sbcs	r6, r2
    7ede:	4333      	orrs	r3, r6
    7ee0:	e5ef      	b.n	7ac2 <__aeabi_dsub+0x182>
    7ee2:	4b39      	ldr	r3, [pc, #228]	; (7fc8 <__aeabi_dsub+0x688>)
    7ee4:	429f      	cmp	r7, r3
    7ee6:	d0cb      	beq.n	7e80 <__aeabi_dsub+0x540>
    7ee8:	2580      	movs	r5, #128	; 0x80
    7eea:	042d      	lsls	r5, r5, #16
    7eec:	4273      	negs	r3, r6
    7eee:	4329      	orrs	r1, r5
    7ef0:	e7a8      	b.n	7e44 <__aeabi_dsub+0x504>
    7ef2:	4308      	orrs	r0, r1
    7ef4:	1e41      	subs	r1, r0, #1
    7ef6:	4188      	sbcs	r0, r1
    7ef8:	e6a2      	b.n	7c40 <__aeabi_dsub+0x300>
    7efa:	2f00      	cmp	r7, #0
    7efc:	d100      	bne.n	7f00 <__aeabi_dsub+0x5c0>
    7efe:	e63c      	b.n	7b7a <__aeabi_dsub+0x23a>
    7f00:	4663      	mov	r3, ip
    7f02:	1a86      	subs	r6, r0, r2
    7f04:	1acf      	subs	r7, r1, r3
    7f06:	42b0      	cmp	r0, r6
    7f08:	419b      	sbcs	r3, r3
    7f0a:	425b      	negs	r3, r3
    7f0c:	1afb      	subs	r3, r7, r3
    7f0e:	4698      	mov	r8, r3
    7f10:	021b      	lsls	r3, r3, #8
    7f12:	d54e      	bpl.n	7fb2 <__aeabi_dsub+0x672>
    7f14:	1a16      	subs	r6, r2, r0
    7f16:	4663      	mov	r3, ip
    7f18:	42b2      	cmp	r2, r6
    7f1a:	4192      	sbcs	r2, r2
    7f1c:	1a59      	subs	r1, r3, r1
    7f1e:	4252      	negs	r2, r2
    7f20:	1a89      	subs	r1, r1, r2
    7f22:	465c      	mov	r4, fp
    7f24:	2200      	movs	r2, #0
    7f26:	e57b      	b.n	7a20 <__aeabi_dsub+0xe0>
    7f28:	4301      	orrs	r1, r0
    7f2a:	000e      	movs	r6, r1
    7f2c:	1e71      	subs	r1, r6, #1
    7f2e:	418e      	sbcs	r6, r1
    7f30:	e79f      	b.n	7e72 <__aeabi_dsub+0x532>
    7f32:	001d      	movs	r5, r3
    7f34:	000e      	movs	r6, r1
    7f36:	3d20      	subs	r5, #32
    7f38:	40ee      	lsrs	r6, r5
    7f3a:	46b0      	mov	r8, r6
    7f3c:	2b20      	cmp	r3, #32
    7f3e:	d004      	beq.n	7f4a <__aeabi_dsub+0x60a>
    7f40:	2540      	movs	r5, #64	; 0x40
    7f42:	1aeb      	subs	r3, r5, r3
    7f44:	4099      	lsls	r1, r3
    7f46:	4308      	orrs	r0, r1
    7f48:	4681      	mov	r9, r0
    7f4a:	4648      	mov	r0, r9
    7f4c:	4643      	mov	r3, r8
    7f4e:	1e41      	subs	r1, r0, #1
    7f50:	4188      	sbcs	r0, r1
    7f52:	4318      	orrs	r0, r3
    7f54:	e674      	b.n	7c40 <__aeabi_dsub+0x300>
    7f56:	2200      	movs	r2, #0
    7f58:	2400      	movs	r4, #0
    7f5a:	e617      	b.n	7b8c <__aeabi_dsub+0x24c>
    7f5c:	1a16      	subs	r6, r2, r0
    7f5e:	4663      	mov	r3, ip
    7f60:	42b2      	cmp	r2, r6
    7f62:	4192      	sbcs	r2, r2
    7f64:	1a59      	subs	r1, r3, r1
    7f66:	4252      	negs	r2, r2
    7f68:	1a89      	subs	r1, r1, r2
    7f6a:	003d      	movs	r5, r7
    7f6c:	e525      	b.n	79ba <__aeabi_dsub+0x7a>
    7f6e:	4661      	mov	r1, ip
    7f70:	4691      	mov	r9, r2
    7f72:	4d15      	ldr	r5, [pc, #84]	; (7fc8 <__aeabi_dsub+0x688>)
    7f74:	e601      	b.n	7b7a <__aeabi_dsub+0x23a>
    7f76:	2280      	movs	r2, #128	; 0x80
    7f78:	2400      	movs	r4, #0
    7f7a:	0312      	lsls	r2, r2, #12
    7f7c:	e679      	b.n	7c72 <__aeabi_dsub+0x332>
    7f7e:	001d      	movs	r5, r3
    7f80:	000e      	movs	r6, r1
    7f82:	3d20      	subs	r5, #32
    7f84:	40ee      	lsrs	r6, r5
    7f86:	46b0      	mov	r8, r6
    7f88:	2b20      	cmp	r3, #32
    7f8a:	d004      	beq.n	7f96 <__aeabi_dsub+0x656>
    7f8c:	2540      	movs	r5, #64	; 0x40
    7f8e:	1aeb      	subs	r3, r5, r3
    7f90:	4099      	lsls	r1, r3
    7f92:	4308      	orrs	r0, r1
    7f94:	4681      	mov	r9, r0
    7f96:	464e      	mov	r6, r9
    7f98:	4643      	mov	r3, r8
    7f9a:	1e71      	subs	r1, r6, #1
    7f9c:	418e      	sbcs	r6, r1
    7f9e:	431e      	orrs	r6, r3
    7fa0:	e767      	b.n	7e72 <__aeabi_dsub+0x532>
    7fa2:	1886      	adds	r6, r0, r2
    7fa4:	4296      	cmp	r6, r2
    7fa6:	419b      	sbcs	r3, r3
    7fa8:	4461      	add	r1, ip
    7faa:	425b      	negs	r3, r3
    7fac:	18c9      	adds	r1, r1, r3
    7fae:	003d      	movs	r5, r7
    7fb0:	e58c      	b.n	7acc <__aeabi_dsub+0x18c>
    7fb2:	4647      	mov	r7, r8
    7fb4:	4337      	orrs	r7, r6
    7fb6:	d0ce      	beq.n	7f56 <__aeabi_dsub+0x616>
    7fb8:	2207      	movs	r2, #7
    7fba:	4641      	mov	r1, r8
    7fbc:	4032      	ands	r2, r6
    7fbe:	e649      	b.n	7c54 <__aeabi_dsub+0x314>
    7fc0:	2700      	movs	r7, #0
    7fc2:	003a      	movs	r2, r7
    7fc4:	e5e6      	b.n	7b94 <__aeabi_dsub+0x254>
    7fc6:	46c0      	nop			; (mov r8, r8)
    7fc8:	000007ff 	.word	0x000007ff
    7fcc:	ff7fffff 	.word	0xff7fffff

00007fd0 <__aeabi_d2iz>:
__aeabi_d2iz():
    7fd0:	b530      	push	{r4, r5, lr}
    7fd2:	4d14      	ldr	r5, [pc, #80]	; (8024 <__aeabi_d2iz+0x54>)
    7fd4:	030a      	lsls	r2, r1, #12
    7fd6:	004b      	lsls	r3, r1, #1
    7fd8:	0b12      	lsrs	r2, r2, #12
    7fda:	0d5b      	lsrs	r3, r3, #21
    7fdc:	0fc9      	lsrs	r1, r1, #31
    7fde:	2400      	movs	r4, #0
    7fe0:	42ab      	cmp	r3, r5
    7fe2:	dd11      	ble.n	8008 <__aeabi_d2iz+0x38>
    7fe4:	4c10      	ldr	r4, [pc, #64]	; (8028 <__aeabi_d2iz+0x58>)
    7fe6:	42a3      	cmp	r3, r4
    7fe8:	dc10      	bgt.n	800c <__aeabi_d2iz+0x3c>
    7fea:	2480      	movs	r4, #128	; 0x80
    7fec:	0364      	lsls	r4, r4, #13
    7fee:	4322      	orrs	r2, r4
    7ff0:	4c0e      	ldr	r4, [pc, #56]	; (802c <__aeabi_d2iz+0x5c>)
    7ff2:	1ae4      	subs	r4, r4, r3
    7ff4:	2c1f      	cmp	r4, #31
    7ff6:	dd0c      	ble.n	8012 <__aeabi_d2iz+0x42>
    7ff8:	480d      	ldr	r0, [pc, #52]	; (8030 <__aeabi_d2iz+0x60>)
    7ffa:	1ac3      	subs	r3, r0, r3
    7ffc:	40da      	lsrs	r2, r3
    7ffe:	0013      	movs	r3, r2
    8000:	425c      	negs	r4, r3
    8002:	2900      	cmp	r1, #0
    8004:	d100      	bne.n	8008 <__aeabi_d2iz+0x38>
    8006:	001c      	movs	r4, r3
    8008:	0020      	movs	r0, r4
    800a:	bd30      	pop	{r4, r5, pc}
    800c:	4b09      	ldr	r3, [pc, #36]	; (8034 <__aeabi_d2iz+0x64>)
    800e:	18cc      	adds	r4, r1, r3
    8010:	e7fa      	b.n	8008 <__aeabi_d2iz+0x38>
    8012:	4d09      	ldr	r5, [pc, #36]	; (8038 <__aeabi_d2iz+0x68>)
    8014:	40e0      	lsrs	r0, r4
    8016:	46ac      	mov	ip, r5
    8018:	4463      	add	r3, ip
    801a:	409a      	lsls	r2, r3
    801c:	0013      	movs	r3, r2
    801e:	4303      	orrs	r3, r0
    8020:	e7ee      	b.n	8000 <__aeabi_d2iz+0x30>
    8022:	46c0      	nop			; (mov r8, r8)
    8024:	000003fe 	.word	0x000003fe
    8028:	0000041d 	.word	0x0000041d
    802c:	00000433 	.word	0x00000433
    8030:	00000413 	.word	0x00000413
    8034:	7fffffff 	.word	0x7fffffff
    8038:	fffffbed 	.word	0xfffffbed

0000803c <__aeabi_ui2d>:
__aeabi_ui2d():
    803c:	b510      	push	{r4, lr}
    803e:	1e04      	subs	r4, r0, #0
    8040:	d025      	beq.n	808e <__aeabi_ui2d+0x52>
    8042:	f000 f82d 	bl	80a0 <__clzsi2>
    8046:	4b14      	ldr	r3, [pc, #80]	; (8098 <__aeabi_ui2d+0x5c>)
    8048:	1a1b      	subs	r3, r3, r0
    804a:	055b      	lsls	r3, r3, #21
    804c:	0d5b      	lsrs	r3, r3, #21
    804e:	280a      	cmp	r0, #10
    8050:	dd12      	ble.n	8078 <__aeabi_ui2d+0x3c>
    8052:	380b      	subs	r0, #11
    8054:	4084      	lsls	r4, r0
    8056:	2200      	movs	r2, #0
    8058:	0324      	lsls	r4, r4, #12
    805a:	0b24      	lsrs	r4, r4, #12
    805c:	2100      	movs	r1, #0
    805e:	0010      	movs	r0, r2
    8060:	0324      	lsls	r4, r4, #12
    8062:	0d0a      	lsrs	r2, r1, #20
    8064:	0b24      	lsrs	r4, r4, #12
    8066:	0512      	lsls	r2, r2, #20
    8068:	4322      	orrs	r2, r4
    806a:	4c0c      	ldr	r4, [pc, #48]	; (809c <__aeabi_ui2d+0x60>)
    806c:	051b      	lsls	r3, r3, #20
    806e:	4022      	ands	r2, r4
    8070:	4313      	orrs	r3, r2
    8072:	005b      	lsls	r3, r3, #1
    8074:	0859      	lsrs	r1, r3, #1
    8076:	bd10      	pop	{r4, pc}
    8078:	0002      	movs	r2, r0
    807a:	0021      	movs	r1, r4
    807c:	3215      	adds	r2, #21
    807e:	4091      	lsls	r1, r2
    8080:	000a      	movs	r2, r1
    8082:	210b      	movs	r1, #11
    8084:	1a08      	subs	r0, r1, r0
    8086:	40c4      	lsrs	r4, r0
    8088:	0324      	lsls	r4, r4, #12
    808a:	0b24      	lsrs	r4, r4, #12
    808c:	e7e6      	b.n	805c <__aeabi_ui2d+0x20>
    808e:	2300      	movs	r3, #0
    8090:	2400      	movs	r4, #0
    8092:	2200      	movs	r2, #0
    8094:	e7e2      	b.n	805c <__aeabi_ui2d+0x20>
    8096:	46c0      	nop			; (mov r8, r8)
    8098:	0000041e 	.word	0x0000041e
    809c:	800fffff 	.word	0x800fffff

000080a0 <__clzsi2>:
__clzsi2():
    80a0:	211c      	movs	r1, #28
    80a2:	2301      	movs	r3, #1
    80a4:	041b      	lsls	r3, r3, #16
    80a6:	4298      	cmp	r0, r3
    80a8:	d301      	bcc.n	80ae <__clzsi2+0xe>
    80aa:	0c00      	lsrs	r0, r0, #16
    80ac:	3910      	subs	r1, #16
    80ae:	0a1b      	lsrs	r3, r3, #8
    80b0:	4298      	cmp	r0, r3
    80b2:	d301      	bcc.n	80b8 <__clzsi2+0x18>
    80b4:	0a00      	lsrs	r0, r0, #8
    80b6:	3908      	subs	r1, #8
    80b8:	091b      	lsrs	r3, r3, #4
    80ba:	4298      	cmp	r0, r3
    80bc:	d301      	bcc.n	80c2 <__clzsi2+0x22>
    80be:	0900      	lsrs	r0, r0, #4
    80c0:	3904      	subs	r1, #4
    80c2:	a202      	add	r2, pc, #8	; (adr r2, 80cc <__clzsi2+0x2c>)
    80c4:	5c10      	ldrb	r0, [r2, r0]
    80c6:	1840      	adds	r0, r0, r1
    80c8:	4770      	bx	lr
    80ca:	46c0      	nop			; (mov r8, r8)
    80cc:	02020304 	.word	0x02020304
    80d0:	01010101 	.word	0x01010101
	...

000080dc <__clzdi2>:
__clzdi2():
    80dc:	b510      	push	{r4, lr}
    80de:	2900      	cmp	r1, #0
    80e0:	d103      	bne.n	80ea <__clzdi2+0xe>
    80e2:	f7ff ffdd 	bl	80a0 <__clzsi2>
    80e6:	3020      	adds	r0, #32
    80e8:	e002      	b.n	80f0 <__clzdi2+0x14>
    80ea:	1c08      	adds	r0, r1, #0
    80ec:	f7ff ffd8 	bl	80a0 <__clzsi2>
    80f0:	bd10      	pop	{r4, pc}
    80f2:	46c0      	nop			; (mov r8, r8)

000080f4 <strlen>:
strlen():
    80f4:	2300      	movs	r3, #0
    80f6:	5cc2      	ldrb	r2, [r0, r3]
    80f8:	3301      	adds	r3, #1
    80fa:	2a00      	cmp	r2, #0
    80fc:	d1fb      	bne.n	80f6 <strlen+0x2>
    80fe:	1e58      	subs	r0, r3, #1
    8100:	4770      	bx	lr
	...

00008104 <SystemInit>:
SystemInit():
D:\app_for_qianrushi\exam\21\Debug/srcc/system_MKL36Z4.c:112
    //看门狗默认为开启，而且复位之后只能开启或关闭看门狗一次
    //SIM_COPC &= ~SIM_COPC_COPT_MASK;    //DISABLE_WDOG 

    /* System clock initialization */
    /* SIM_CLKDIV1: OUTDIV1=0,??=0,??=0,??=0,??=0,??=0,??=0,??=0,??=0,??=0,OUTDIV4=3,??=0,??=0,??=0,??=0,??=0,??=0,??=0,??=0,??=0,??=0,??=0,??=0,??=0,??=0,??=0,??=0 */
    SIM_CLKDIV1 = (SIM_CLKDIV1_OUTDIV1(0x00) | SIM_CLKDIV1_OUTDIV4(0x03)); /* Set the system prescalers to safe value */
    8104:	4b26      	ldr	r3, [pc, #152]	; (81a0 <SystemInit+0x9c>)
    8106:	4a27      	ldr	r2, [pc, #156]	; (81a4 <SystemInit+0xa0>)
    8108:	21c0      	movs	r1, #192	; 0xc0
    810a:	0289      	lsls	r1, r1, #10
    810c:	5099      	str	r1, [r3, r2]
D:\app_for_qianrushi\exam\21\Debug/srcc/system_MKL36Z4.c:114
    /* SIM_SCGC5: PORTA=1 */
    SIM_SCGC5 |= SIM_SCGC5_PORTA_MASK;   /* Enable clock gate for ports to enable pin routing */
    810e:	4926      	ldr	r1, [pc, #152]	; (81a8 <SystemInit+0xa4>)
    8110:	5858      	ldr	r0, [r3, r1]
    8112:	2280      	movs	r2, #128	; 0x80
    8114:	0092      	lsls	r2, r2, #2
    8116:	4302      	orrs	r2, r0
    8118:	505a      	str	r2, [r3, r1]
D:\app_for_qianrushi\exam\21\Debug/srcc/system_MKL36Z4.c:115
    if ((PMC_REGSC & PMC_REGSC_ACKISO_MASK) != 0x0U) {
    811a:	4b24      	ldr	r3, [pc, #144]	; (81ac <SystemInit+0xa8>)
    811c:	789b      	ldrb	r3, [r3, #2]
    811e:	071b      	lsls	r3, r3, #28
    8120:	d504      	bpl.n	812c <SystemInit+0x28>
D:\app_for_qianrushi\exam\21\Debug/srcc/system_MKL36Z4.c:117
        /* PMC_REGSC: ACKISO=1 */
        PMC_REGSC |= PMC_REGSC_ACKISO_MASK; /* Release IO pads after wakeup from VLLS mode. */
    8122:	4a22      	ldr	r2, [pc, #136]	; (81ac <SystemInit+0xa8>)
    8124:	7893      	ldrb	r3, [r2, #2]
    8126:	2108      	movs	r1, #8
    8128:	430b      	orrs	r3, r1
    812a:	7093      	strb	r3, [r2, #2]
D:\app_for_qianrushi\exam\21\Debug/srcc/system_MKL36Z4.c:120
    }
    /* SIM_CLKDIV1: OUTDIV1=0,??=0,??=0,??=0,??=0,??=0,??=0,??=0,??=0,??=0,OUTDIV4=1,??=0,??=0,??=0,??=0,??=0,??=0,??=0,??=0,??=0,??=0,??=0,??=0,??=0,??=0,??=0,??=0 */
    SIM_CLKDIV1 = (SIM_CLKDIV1_OUTDIV1(0x00) | SIM_CLKDIV1_OUTDIV4(0x01)); /* Update system prescalers */
    812c:	4b1c      	ldr	r3, [pc, #112]	; (81a0 <SystemInit+0x9c>)
    812e:	4a1d      	ldr	r2, [pc, #116]	; (81a4 <SystemInit+0xa0>)
    8130:	2180      	movs	r1, #128	; 0x80
    8132:	0249      	lsls	r1, r1, #9
    8134:	5099      	str	r1, [r3, r2]
D:\app_for_qianrushi\exam\21\Debug/srcc/system_MKL36Z4.c:122
    /* SIM_SOPT2: ??=0,PLLFLLSEL=0 */
    SIM_SOPT2 &= (uint32_t)~(uint32_t)((SIM_SOPT2_PLLFLLSEL_MASK | 0x00020000U)); /* Select FLL as a clock source for various peripherals */
    8136:	4a1e      	ldr	r2, [pc, #120]	; (81b0 <SystemInit+0xac>)
    8138:	5899      	ldr	r1, [r3, r2]
    813a:	481e      	ldr	r0, [pc, #120]	; (81b4 <SystemInit+0xb0>)
    813c:	4001      	ands	r1, r0
    813e:	5099      	str	r1, [r3, r2]
D:\app_for_qianrushi\exam\21\Debug/srcc/system_MKL36Z4.c:124
    /* SIM_SOPT1: OSC32KSEL=0 */
    SIM_SOPT1 &= (uint32_t)~(uint32_t)(SIM_SOPT1_OSC32KSEL(0x03)); /* System oscillator drives 32 kHz clock for various peripherals */
    8140:	6819      	ldr	r1, [r3, #0]
    8142:	481d      	ldr	r0, [pc, #116]	; (81b8 <SystemInit+0xb4>)
    8144:	4001      	ands	r1, r0
    8146:	6019      	str	r1, [r3, #0]
D:\app_for_qianrushi\exam\21\Debug/srcc/system_MKL36Z4.c:126
    /* SIM_SOPT2: TPMSRC=1 */
    SIM_SOPT2 = (uint32_t)((SIM_SOPT2 & (uint32_t)~(uint32_t)(
    8148:	5899      	ldr	r1, [r3, r2]
    814a:	481c      	ldr	r0, [pc, #112]	; (81bc <SystemInit+0xb8>)
    814c:	4008      	ands	r0, r1
    814e:	2180      	movs	r1, #128	; 0x80
    8150:	0449      	lsls	r1, r1, #17
    8152:	4301      	orrs	r1, r0
    8154:	5099      	str	r1, [r3, r2]
D:\app_for_qianrushi\exam\21\Debug/srcc/system_MKL36Z4.c:133
    )) | (uint32_t)(
            SIM_SOPT2_TPMSRC(0x01)
    ));                      /* Set the TPM clock */
    /* Switch to FEI Mode */
    /* MCG_C1: CLKS=0,FRDIV=0,IREFS=1,IRCLKEN=1,IREFSTEN=0 */
    MCG_C1 = MCG_C1_CLKS(0x00) |
    8156:	4b1a      	ldr	r3, [pc, #104]	; (81c0 <SystemInit+0xbc>)
    8158:	2206      	movs	r2, #6
    815a:	701a      	strb	r2, [r3, #0]
D:\app_for_qianrushi\exam\21\Debug/srcc/system_MKL36Z4.c:138
            MCG_C1_FRDIV(0x00) |
            MCG_C1_IREFS_MASK |
            MCG_C1_IRCLKEN_MASK;
    /* MCG_C2: LOCRE0=0,RANGE0=0,HGO0=0,EREFS0=0,LP=0,IRCS=0 */
    MCG_C2 &= (uint8_t)~(uint8_t)(
    815c:	785a      	ldrb	r2, [r3, #1]
    815e:	2140      	movs	r1, #64	; 0x40
    8160:	400a      	ands	r2, r1
    8162:	705a      	strb	r2, [r3, #1]
D:\app_for_qianrushi\exam\21\Debug/srcc/system_MKL36Z4.c:147
            MCG_C2_EREFS0_MASK |
            MCG_C2_LP_MASK |
            MCG_C2_IRCS_MASK
    );
    /* MCG_C4: DMX32=1,DRST_DRS=1 */
    MCG_C4 = (uint8_t)((MCG_C4 & (uint8_t)~(uint8_t)(
    8164:	78d9      	ldrb	r1, [r3, #3]
    8166:	b249      	sxtb	r1, r1
D:\app_for_qianrushi\exam\21\Debug/srcc/system_MKL36Z4.c:149
            MCG_C4_DRST_DRS(0x02)
    )) | (uint8_t)(
    8168:	221f      	movs	r2, #31
    816a:	4011      	ands	r1, r2
    816c:	3a7f      	subs	r2, #127	; 0x7f
    816e:	430a      	orrs	r2, r1
D:\app_for_qianrushi\exam\21\Debug/srcc/system_MKL36Z4.c:147
    MCG_C4 = (uint8_t)((MCG_C4 & (uint8_t)~(uint8_t)(
    8170:	b2d2      	uxtb	r2, r2
    8172:	70da      	strb	r2, [r3, #3]
D:\app_for_qianrushi\exam\21\Debug/srcc/system_MKL36Z4.c:154
            MCG_C4_DMX32_MASK |
            MCG_C4_DRST_DRS(0x01)
    ));
    /* OSC0_CR: ERCLKEN=0,??=0,EREFSTEN=0,??=0,SC2P=0,SC4P=0,SC8P=0,SC16P=0 */
    OSC0_CR = 0x00U;
    8174:	2200      	movs	r2, #0
    8176:	4913      	ldr	r1, [pc, #76]	; (81c4 <SystemInit+0xc0>)
    8178:	700a      	strb	r2, [r1, #0]
D:\app_for_qianrushi\exam\21\Debug/srcc/system_MKL36Z4.c:156
    /* MCG_C5: ??=0,PLLCLKEN0=0,PLLSTEN0=0,PRDIV0=0 */
    MCG_C5 = MCG_C5_PRDIV0(0x00);
    817a:	711a      	strb	r2, [r3, #4]
D:\app_for_qianrushi\exam\21\Debug/srcc/system_MKL36Z4.c:158
    /* MCG_C6: LOLIE0=0,PLLS=0,CME0=0,VDIV0=0 */
    MCG_C6 = MCG_C6_VDIV0(0x00);
    817c:	715a      	strb	r2, [r3, #5]
D:\app_for_qianrushi\exam\21\Debug/srcc/system_MKL36Z4.c:159 (discriminator 1)
    while((MCG_S & MCG_S_IREFST_MASK) == 0x00U) { /* Check that the source of the FLL reference clock is the internal reference clock. */
    817e:	4b10      	ldr	r3, [pc, #64]	; (81c0 <SystemInit+0xbc>)
    8180:	799b      	ldrb	r3, [r3, #6]
    8182:	06db      	lsls	r3, r3, #27
    8184:	d5fb      	bpl.n	817e <SystemInit+0x7a>
D:\app_for_qianrushi\exam\21\Debug/srcc/system_MKL36Z4.c:161 (discriminator 1)
    }
    while((MCG_S & 0x0CU) != 0x00U) {    /* Wait until output of the FLL is selected */
    8186:	4b0e      	ldr	r3, [pc, #56]	; (81c0 <SystemInit+0xbc>)
    8188:	799a      	ldrb	r2, [r3, #6]
    818a:	230c      	movs	r3, #12
    818c:	421a      	tst	r2, r3
    818e:	d1fa      	bne.n	8186 <SystemInit+0x82>
D:\app_for_qianrushi\exam\21\Debug/srcc/system_MKL36Z4.c:234
    //        if (((MCG_S & MCG_S_CLKST_MASK) >> MCG_S_CLKST_SHIFT) == 0x3) break;
    //    }
    //    //4.现在处于PEE模式

    //开启PORT模块时钟
    SIM->SCGC5 |= SIM_SCGC5_PORTA_MASK
    8190:	4903      	ldr	r1, [pc, #12]	; (81a0 <SystemInit+0x9c>)
    8192:	4a05      	ldr	r2, [pc, #20]	; (81a8 <SystemInit+0xa4>)
    8194:	5888      	ldr	r0, [r1, r2]
    8196:	23f8      	movs	r3, #248	; 0xf8
    8198:	019b      	lsls	r3, r3, #6
    819a:	4303      	orrs	r3, r0
    819c:	508b      	str	r3, [r1, r2]
D:\app_for_qianrushi\exam\21\Debug/srcc/system_MKL36Z4.c:239
            | SIM_SCGC5_PORTB_MASK
            | SIM_SCGC5_PORTC_MASK
            | SIM_SCGC5_PORTD_MASK
            | SIM_SCGC5_PORTE_MASK;
}
    819e:	4770      	bx	lr
    81a0:	40047000 	.word	0x40047000
    81a4:	00001044 	.word	0x00001044
    81a8:	00001038 	.word	0x00001038
    81ac:	4007d000 	.word	0x4007d000
    81b0:	00001004 	.word	0x00001004
    81b4:	fffcffff 	.word	0xfffcffff
    81b8:	fff3ffff 	.word	0xfff3ffff
    81bc:	fcffffff 	.word	0xfcffffff
    81c0:	40064000 	.word	0x40064000
    81c4:	40065000 	.word	0x40065000

000081c8 <Test_RAY_HUMAN>:
Test_RAY_HUMAN():
D:\app_for_qianrushi\exam\21\Debug/srcc/main.c:78
//函数返回：无
//参数说明：无
//功能概要：测试人体红外传感器函数
//=====================================================================
void Test_RAY_HUMAN()
{
    81c8:	b510      	push	{r4, lr}
    81ca:	b082      	sub	sp, #8
D:\app_for_qianrushi\exam\21\Debug/srcc/main.c:79
    gpio_init(RAY_HUMAN,GPIO_INPUT,0);		//初始化红灯和人体红外传感器模块
    81cc:	4c44      	ldr	r4, [pc, #272]	; (82e0 <Test_RAY_HUMAN+0x118>)
    81ce:	2200      	movs	r2, #0
    81d0:	2100      	movs	r1, #0
    81d2:	0020      	movs	r0, r4
    81d4:	f000 f9a0 	bl	8518 <gpio_init>
D:\app_for_qianrushi\exam\21\Debug/srcc/main.c:80
    gpio_pull(RAY_HUMAN,0);
    81d8:	2100      	movs	r1, #0
    81da:	0020      	movs	r0, r4
    81dc:	f000 f9f0 	bl	85c0 <gpio_pull>
D:\app_for_qianrushi\exam\21\Debug/srcc/main.c:81
    if (gpio_get(RAY_HUMAN))
    81e0:	0020      	movs	r0, r4
    81e2:	f000 f9d5 	bl	8590 <gpio_get>
    81e6:	2800      	cmp	r0, #0
    81e8:	d13c      	bne.n	8264 <Test_RAY_HUMAN+0x9c>
D:\app_for_qianrushi\exam\21\Debug/srcc/main.c:95
    	LCD_DrawLine(120,180,80,220,BLACK);
    	LCD_DrawLine(120,180,160,220,BLACK);
    }
    else
    {
    gpio_init(BEEF,GPIO_OUTPUT,0);
    81ea:	2081      	movs	r0, #129	; 0x81
    81ec:	2200      	movs	r2, #0
    81ee:	2101      	movs	r1, #1
    81f0:	0080      	lsls	r0, r0, #2
    81f2:	f000 f991 	bl	8518 <gpio_init>
D:\app_for_qianrushi\exam\21\Debug/srcc/main.c:96
    	LCD_ShowString(84,50,BLACK,GRAY,"No ");
    81f6:	4c3b      	ldr	r4, [pc, #236]	; (82e4 <Test_RAY_HUMAN+0x11c>)
    81f8:	4b3b      	ldr	r3, [pc, #236]	; (82e8 <Test_RAY_HUMAN+0x120>)
    81fa:	9300      	str	r3, [sp, #0]
    81fc:	0023      	movs	r3, r4
    81fe:	2200      	movs	r2, #0
    8200:	2132      	movs	r1, #50	; 0x32
    8202:	2054      	movs	r0, #84	; 0x54
    8204:	f000 fd90 	bl	8d28 <LCD_ShowString>
D:\app_for_qianrushi\exam\21\Debug/srcc/main.c:97
    	printf("红外：监测无人\r\n\r\n");
    8208:	4838      	ldr	r0, [pc, #224]	; (82ec <Test_RAY_HUMAN+0x124>)
    820a:	f001 fb1d 	bl	9848 <myprintf>
D:\app_for_qianrushi\exam\21\Debug/srcc/main.c:98
    	LCD_DrawCircle(120,110,15,GRAY);
    820e:	0023      	movs	r3, r4
    8210:	220f      	movs	r2, #15
    8212:	216e      	movs	r1, #110	; 0x6e
    8214:	2078      	movs	r0, #120	; 0x78
    8216:	f000 fc89 	bl	8b2c <LCD_DrawCircle>
D:\app_for_qianrushi\exam\21\Debug/srcc/main.c:99
    	LCD_DrawLine(120,125,120,180,GRAY);
    821a:	9400      	str	r4, [sp, #0]
    821c:	23b4      	movs	r3, #180	; 0xb4
    821e:	2278      	movs	r2, #120	; 0x78
    8220:	217d      	movs	r1, #125	; 0x7d
    8222:	2078      	movs	r0, #120	; 0x78
    8224:	f000 fd00 	bl	8c28 <LCD_DrawLine>
D:\app_for_qianrushi\exam\21\Debug/srcc/main.c:100
    	LCD_DrawLine(120,140,60,160,GRAY);
    8228:	9400      	str	r4, [sp, #0]
    822a:	23a0      	movs	r3, #160	; 0xa0
    822c:	223c      	movs	r2, #60	; 0x3c
    822e:	218c      	movs	r1, #140	; 0x8c
    8230:	2078      	movs	r0, #120	; 0x78
    8232:	f000 fcf9 	bl	8c28 <LCD_DrawLine>
D:\app_for_qianrushi\exam\21\Debug/srcc/main.c:101
    	LCD_DrawLine(120,140,180,160,GRAY);
    8236:	9400      	str	r4, [sp, #0]
    8238:	23a0      	movs	r3, #160	; 0xa0
    823a:	22b4      	movs	r2, #180	; 0xb4
    823c:	218c      	movs	r1, #140	; 0x8c
    823e:	2078      	movs	r0, #120	; 0x78
    8240:	f000 fcf2 	bl	8c28 <LCD_DrawLine>
D:\app_for_qianrushi\exam\21\Debug/srcc/main.c:102
    	LCD_DrawLine(120,180,80,220,GRAY);
    8244:	9400      	str	r4, [sp, #0]
    8246:	23dc      	movs	r3, #220	; 0xdc
    8248:	2250      	movs	r2, #80	; 0x50
    824a:	21b4      	movs	r1, #180	; 0xb4
    824c:	2078      	movs	r0, #120	; 0x78
    824e:	f000 fceb 	bl	8c28 <LCD_DrawLine>
D:\app_for_qianrushi\exam\21\Debug/srcc/main.c:103
    	LCD_DrawLine(120,180,160,220,GRAY);
    8252:	9400      	str	r4, [sp, #0]
    8254:	23dc      	movs	r3, #220	; 0xdc
    8256:	22a0      	movs	r2, #160	; 0xa0
    8258:	21b4      	movs	r1, #180	; 0xb4
    825a:	2078      	movs	r0, #120	; 0x78
    825c:	f000 fce4 	bl	8c28 <LCD_DrawLine>
D:\app_for_qianrushi\exam\21\Debug/srcc/main.c:105
    }
}
    8260:	b002      	add	sp, #8
    8262:	bd10      	pop	{r4, pc}
D:\app_for_qianrushi\exam\21\Debug/srcc/main.c:83
    	gpio_init(BEEF,GPIO_OUTPUT,1);
    8264:	2081      	movs	r0, #129	; 0x81
    8266:	2201      	movs	r2, #1
    8268:	2101      	movs	r1, #1
    826a:	0080      	lsls	r0, r0, #2
    826c:	f000 f954 	bl	8518 <gpio_init>
D:\app_for_qianrushi\exam\21\Debug/srcc/main.c:84
    	LCD_ShowString(84,50,RED,GRAY,"Yes");
    8270:	22f8      	movs	r2, #248	; 0xf8
    8272:	4b1f      	ldr	r3, [pc, #124]	; (82f0 <Test_RAY_HUMAN+0x128>)
    8274:	9300      	str	r3, [sp, #0]
    8276:	4b1b      	ldr	r3, [pc, #108]	; (82e4 <Test_RAY_HUMAN+0x11c>)
    8278:	0212      	lsls	r2, r2, #8
    827a:	2132      	movs	r1, #50	; 0x32
    827c:	2054      	movs	r0, #84	; 0x54
    827e:	f000 fd53 	bl	8d28 <LCD_ShowString>
D:\app_for_qianrushi\exam\21\Debug/srcc/main.c:85
    	printf("红外：监测有人\r\n\r\n");
    8282:	481c      	ldr	r0, [pc, #112]	; (82f4 <Test_RAY_HUMAN+0x12c>)
    8284:	f001 fae0 	bl	9848 <myprintf>
D:\app_for_qianrushi\exam\21\Debug/srcc/main.c:86
    	LCD_DrawCircle(120,110,15,BLACK);
    8288:	2300      	movs	r3, #0
    828a:	220f      	movs	r2, #15
    828c:	216e      	movs	r1, #110	; 0x6e
    828e:	2078      	movs	r0, #120	; 0x78
    8290:	f000 fc4c 	bl	8b2c <LCD_DrawCircle>
D:\app_for_qianrushi\exam\21\Debug/srcc/main.c:87
    	LCD_DrawLine(120,125,120,180,BLACK);
    8294:	2400      	movs	r4, #0
    8296:	9400      	str	r4, [sp, #0]
    8298:	23b4      	movs	r3, #180	; 0xb4
    829a:	2278      	movs	r2, #120	; 0x78
    829c:	217d      	movs	r1, #125	; 0x7d
    829e:	2078      	movs	r0, #120	; 0x78
    82a0:	f000 fcc2 	bl	8c28 <LCD_DrawLine>
D:\app_for_qianrushi\exam\21\Debug/srcc/main.c:88
    	LCD_DrawLine(120,140,60,160,BLACK);
    82a4:	9400      	str	r4, [sp, #0]
    82a6:	23a0      	movs	r3, #160	; 0xa0
    82a8:	223c      	movs	r2, #60	; 0x3c
    82aa:	218c      	movs	r1, #140	; 0x8c
    82ac:	2078      	movs	r0, #120	; 0x78
    82ae:	f000 fcbb 	bl	8c28 <LCD_DrawLine>
D:\app_for_qianrushi\exam\21\Debug/srcc/main.c:89
    	LCD_DrawLine(120,140,180,160,BLACK);
    82b2:	9400      	str	r4, [sp, #0]
    82b4:	23a0      	movs	r3, #160	; 0xa0
    82b6:	22b4      	movs	r2, #180	; 0xb4
    82b8:	218c      	movs	r1, #140	; 0x8c
    82ba:	2078      	movs	r0, #120	; 0x78
    82bc:	f000 fcb4 	bl	8c28 <LCD_DrawLine>
D:\app_for_qianrushi\exam\21\Debug/srcc/main.c:90
    	LCD_DrawLine(120,180,80,220,BLACK);
    82c0:	9400      	str	r4, [sp, #0]
    82c2:	23dc      	movs	r3, #220	; 0xdc
    82c4:	2250      	movs	r2, #80	; 0x50
    82c6:	21b4      	movs	r1, #180	; 0xb4
    82c8:	2078      	movs	r0, #120	; 0x78
    82ca:	f000 fcad 	bl	8c28 <LCD_DrawLine>
D:\app_for_qianrushi\exam\21\Debug/srcc/main.c:91
    	LCD_DrawLine(120,180,160,220,BLACK);
    82ce:	9400      	str	r4, [sp, #0]
    82d0:	23dc      	movs	r3, #220	; 0xdc
    82d2:	22a0      	movs	r2, #160	; 0xa0
    82d4:	21b4      	movs	r1, #180	; 0xb4
    82d6:	2078      	movs	r0, #120	; 0x78
    82d8:	f000 fca6 	bl	8c28 <LCD_DrawLine>
    82dc:	e7c0      	b.n	8260 <Test_RAY_HUMAN+0x98>
    82de:	46c0      	nop			; (mov r8, r8)
    82e0:	00000306 	.word	0x00000306
    82e4:	00008430 	.word	0x00008430
    82e8:	000098e8 	.word	0x000098e8
    82ec:	000098ec 	.word	0x000098ec
    82f0:	000098d0 	.word	0x000098d0
    82f4:	000098d4 	.word	0x000098d4

000082f8 <main>:
main():
D:\app_for_qianrushi\exam\21\Debug/srcc/main.c:19
{
    82f8:	b530      	push	{r4, r5, lr}
    82fa:	b083      	sub	sp, #12
D:\app_for_qianrushi\exam\21\Debug/srcc/main.c:26
    DISABLE_INTERRUPTS;
    82fc:	b672      	cpsid	i
D:\app_for_qianrushi\exam\21\Debug/srcc/main.c:36
    gpio_init(LIGHT_BLUE,GPIO_OUTPUT,LIGHT_OFF);    //初始化蓝灯
    82fe:	2201      	movs	r2, #1
    8300:	2101      	movs	r1, #1
    8302:	200d      	movs	r0, #13
    8304:	f000 f908 	bl	8518 <gpio_init>
D:\app_for_qianrushi\exam\21\Debug/srcc/main.c:37
     wdog_feed();
    8308:	f000 f98c 	bl	8624 <wdog_feed>
D:\app_for_qianrushi\exam\21\Debug/srcc/main.c:38
     printf("LCD初始化...");
    830c:	481f      	ldr	r0, [pc, #124]	; (838c <main+0x94>)
    830e:	f001 fa9b 	bl	9848 <myprintf>
D:\app_for_qianrushi\exam\21\Debug/srcc/main.c:39
     LCD_Init();
    8312:	f000 fe3d 	bl	8f90 <LCD_Init>
D:\app_for_qianrushi\exam\21\Debug/srcc/main.c:40
      printf("成功\n");
    8316:	481e      	ldr	r0, [pc, #120]	; (8390 <main+0x98>)
    8318:	f001 fa96 	bl	9848 <myprintf>
D:\app_for_qianrushi\exam\21\Debug/srcc/main.c:44
    ENABLE_INTERRUPTS;
    831c:	b662      	cpsie	i
D:\app_for_qianrushi\exam\21\Debug/srcc/main.c:48
    LCD_aotu(2,2,238,318,0);
    831e:	239f      	movs	r3, #159	; 0x9f
    8320:	2200      	movs	r2, #0
    8322:	9200      	str	r2, [sp, #0]
    8324:	005b      	lsls	r3, r3, #1
    8326:	32ee      	adds	r2, #238	; 0xee
    8328:	2102      	movs	r1, #2
    832a:	2002      	movs	r0, #2
    832c:	f000 fda0 	bl	8e70 <LCD_aotu>
D:\app_for_qianrushi\exam\21\Debug/srcc/main.c:49
    LCD_aotu(4,40,236,80,1);
    8330:	2401      	movs	r4, #1
    8332:	9400      	str	r4, [sp, #0]
    8334:	2350      	movs	r3, #80	; 0x50
    8336:	22ec      	movs	r2, #236	; 0xec
    8338:	2128      	movs	r1, #40	; 0x28
    833a:	2004      	movs	r0, #4
    833c:	f000 fd98 	bl	8e70 <LCD_aotu>
D:\app_for_qianrushi\exam\21\Debug/srcc/main.c:50
    LCD_ShowString(72,20,RED,GRAY,(char *)"AHL-MCU-KL36");
    8340:	4d14      	ldr	r5, [pc, #80]	; (8394 <main+0x9c>)
    8342:	22f8      	movs	r2, #248	; 0xf8
    8344:	4b14      	ldr	r3, [pc, #80]	; (8398 <main+0xa0>)
    8346:	9300      	str	r3, [sp, #0]
    8348:	002b      	movs	r3, r5
    834a:	0212      	lsls	r2, r2, #8
    834c:	2114      	movs	r1, #20
    834e:	2048      	movs	r0, #72	; 0x48
    8350:	f000 fcea 	bl	8d28 <LCD_ShowString>
D:\app_for_qianrushi\exam\21\Debug/srcc/main.c:52
  	wdog_feed();
    8354:	f000 f966 	bl	8624 <wdog_feed>
D:\app_for_qianrushi\exam\21\Debug/srcc/main.c:53
   	LCD_ShowString(8,50,BLACK,GRAY,(char *)"Person:");
    8358:	4b10      	ldr	r3, [pc, #64]	; (839c <main+0xa4>)
    835a:	9300      	str	r3, [sp, #0]
    835c:	002b      	movs	r3, r5
    835e:	2200      	movs	r2, #0
    8360:	2132      	movs	r1, #50	; 0x32
    8362:	2008      	movs	r0, #8
    8364:	f000 fce0 	bl	8d28 <LCD_ShowString>
D:\app_for_qianrushi\exam\21\Debug/srcc/main.c:54
   	LCD_aotu(4,70,236,316,1);
    8368:	239e      	movs	r3, #158	; 0x9e
    836a:	9400      	str	r4, [sp, #0]
    836c:	005b      	lsls	r3, r3, #1
    836e:	22ec      	movs	r2, #236	; 0xec
    8370:	2146      	movs	r1, #70	; 0x46
    8372:	2004      	movs	r0, #4
    8374:	f000 fd7c 	bl	8e70 <LCD_aotu>
D:\app_for_qianrushi\exam\21\Debug/srcc/main.c:30
    mMainLoopCount = 0;     //主循环使用的记录主循环次数变量
    8378:	2300      	movs	r3, #0
D:\app_for_qianrushi\exam\21\Debug/srcc/main.c:60
        mMainLoopCount++;                         //+1
    837a:	3301      	adds	r3, #1
D:\app_for_qianrushi\exam\21\Debug/srcc/main.c:61
        if (mMainLoopCount<=6556677)  continue;   //如果小于特定常数，继续循环
    837c:	4a08      	ldr	r2, [pc, #32]	; (83a0 <main+0xa8>)
    837e:	4293      	cmp	r3, r2
    8380:	d9fb      	bls.n	837a <main+0x82>
D:\app_for_qianrushi\exam\21\Debug/srcc/main.c:65
        Test_RAY_HUMAN();
    8382:	f7ff ff21 	bl	81c8 <Test_RAY_HUMAN>
D:\app_for_qianrushi\exam\21\Debug/srcc/main.c:64
        mMainLoopCount=0;  
    8386:	2300      	movs	r3, #0
    8388:	e7f7      	b.n	837a <main+0x82>
    838a:	46c0      	nop			; (mov r8, r8)
    838c:	00009900 	.word	0x00009900
    8390:	00009910 	.word	0x00009910
    8394:	00008430 	.word	0x00008430
    8398:	00009918 	.word	0x00009918
    839c:	00009928 	.word	0x00009928
    83a0:	00640c05 	.word	0x00640c05

000083a4 <flash_read_physical>:
flash_read_physical():
D:\app_for_qianrushi\exam\21\Debug/srcc/flash.c:203
//       addr：目标地址，要求为4的倍数（例如：0x00000004）
//       N：读字节数目（0~1020,要求为4，8,12,......）
//功能概要：读取flash指定地址的内容
//======================================================================
void flash_read_physical(uint8_t *dest,uint32_t addr,uint16_t N)
{
    83a4:	b510      	push	{r4, lr}
D:\app_for_qianrushi\exam\21\Debug/srcc/flash.c:206
	uint8_t *src;
	src=(uint8_t *)addr;
	memcpy(dest,src,N);
    83a6:	f001 fa61 	bl	986c <memcpy>
D:\app_for_qianrushi\exam\21\Debug/srcc/flash.c:207
}
    83aa:	bd10      	pop	{r4, pc}

000083ac <flash_isempty>:
flash_isempty():
D:\app_for_qianrushi\exam\21\Debug/srcc/flash.c:254
{
   uint16_t i,flag;
   uint8_t* buff;
   i = 0;
   flag = 1;
   for(i = 0; i<N; i++)   //遍历区域内字节
    83ac:	2300      	movs	r3, #0
D:\app_for_qianrushi\exam\21\Debug/srcc/flash.c:254 (discriminator 1)
    83ae:	428b      	cmp	r3, r1
    83b0:	d206      	bcs.n	83c0 <flash_isempty+0x14>
D:\app_for_qianrushi\exam\21\Debug/srcc/flash.c:256
   {
	  buff=(uint8_t*)(sect*0x400);
    83b2:	0282      	lsls	r2, r0, #10
D:\app_for_qianrushi\exam\21\Debug/srcc/flash.c:257
      if(buff[i]!=0xff)   //非空
    83b4:	5cd2      	ldrb	r2, [r2, r3]
    83b6:	2aff      	cmp	r2, #255	; 0xff
    83b8:	d105      	bne.n	83c6 <flash_isempty+0x1a>
D:\app_for_qianrushi\exam\21\Debug/srcc/flash.c:254 (discriminator 2)
   for(i = 0; i<N; i++)   //遍历区域内字节
    83ba:	3301      	adds	r3, #1
    83bc:	b29b      	uxth	r3, r3
    83be:	e7f6      	b.n	83ae <flash_isempty+0x2>
D:\app_for_qianrushi\exam\21\Debug/srcc/flash.c:253
   flag = 1;
    83c0:	2001      	movs	r0, #1
D:\app_for_qianrushi\exam\21\Debug/srcc/flash.c:263
      {
      	  flag=0;
          break;
       }
   }
   return flag;
    83c2:	b2c0      	uxtb	r0, r0
D:\app_for_qianrushi\exam\21\Debug/srcc/flash.c:264
}
    83c4:	4770      	bx	lr
D:\app_for_qianrushi\exam\21\Debug/srcc/flash.c:259
      	  flag=0;
    83c6:	2000      	movs	r0, #0
    83c8:	e7fb      	b.n	83c2 <flash_isempty+0x16>
	...

000083cc <flash_cmd_launch>:
flash_cmd_launch():
D:\app_for_qianrushi\exam\21\Debug/srcc/flash.c:342
//======================================================================
uint32_t flash_cmd_launch(void)
{
	uint8_t irq_flag=0;
    // 清除访问错误标志位和非法访问标志位
    FTFA_FSTAT = ACCERR | FPVIOL;
    83cc:	4b0f      	ldr	r3, [pc, #60]	; (840c <flash_cmd_launch+0x40>)
    83ce:	2230      	movs	r2, #48	; 0x30
    83d0:	701a      	strb	r2, [r3, #0]
__get_PRIMASK():
D:\app_for_qianrushi\exam\21\02_CPU/core_cmFunc.h:484
 */
__attribute__( ( always_inline ) ) __STATIC_INLINE uint32_t __get_PRIMASK(void)
{
  uint32_t result;

  __ASM volatile ("MRS %0, primask" : "=r" (result) );
    83d2:	f3ef 8310 	mrs	r3, PRIMASK
flash_cmd_launch():
D:\app_for_qianrushi\exam\21\Debug/srcc/flash.c:343
    if(__get_PRIMASK() == 0U)
    83d6:	2b00      	cmp	r3, #0
    83d8:	d112      	bne.n	8400 <flash_cmd_launch+0x34>
__disable_irq():
D:\app_for_qianrushi\exam\21\02_CPU/core_cmFunc.h:344
  __ASM volatile ("cpsid i" : : : "memory");
    83da:	b672      	cpsid	i
flash_cmd_launch():
D:\app_for_qianrushi\exam\21\Debug/srcc/flash.c:346
    {
    	__disable_irq();  //关总中断
    	irq_flag = 1;
    83dc:	3a2f      	subs	r2, #47	; 0x2f
D:\app_for_qianrushi\exam\21\Debug/srcc/flash.c:349
    }
    // 启动命令
    FTFA_FSTAT = CCIF;
    83de:	4b0b      	ldr	r3, [pc, #44]	; (840c <flash_cmd_launch+0x40>)
    83e0:	2180      	movs	r1, #128	; 0x80
    83e2:	7019      	strb	r1, [r3, #0]
D:\app_for_qianrushi\exam\21\Debug/srcc/flash.c:351 (discriminator 1)
    // 等待命令结束
    while(!(FTFA_FSTAT & CCIF));
    83e4:	4b09      	ldr	r3, [pc, #36]	; (840c <flash_cmd_launch+0x40>)
    83e6:	781b      	ldrb	r3, [r3, #0]
    83e8:	b25b      	sxtb	r3, r3
    83ea:	2b00      	cmp	r3, #0
    83ec:	dafa      	bge.n	83e4 <flash_cmd_launch+0x18>
D:\app_for_qianrushi\exam\21\Debug/srcc/flash.c:352
    if(irq_flag == 1)
    83ee:	2a01      	cmp	r2, #1
    83f0:	d008      	beq.n	8404 <flash_cmd_launch+0x38>
D:\app_for_qianrushi\exam\21\Debug/srcc/flash.c:357
    {
    	__enable_irq();  //开总中断
    }
    // 检查错误标志
    if(FTFA_FSTAT & (ACCERR | FPVIOL | MGSTAT0))
    83f2:	4b06      	ldr	r3, [pc, #24]	; (840c <flash_cmd_launch+0x40>)
    83f4:	781a      	ldrb	r2, [r3, #0]
    83f6:	2331      	movs	r3, #49	; 0x31
    83f8:	421a      	tst	r2, r3
    83fa:	d105      	bne.n	8408 <flash_cmd_launch+0x3c>
D:\app_for_qianrushi\exam\21\Debug/srcc/flash.c:359
        return 1 ; //执行命令出错
    return 0; //执行命令成功
    83fc:	2000      	movs	r0, #0
D:\app_for_qianrushi\exam\21\Debug/srcc/flash.c:360
}
    83fe:	4770      	bx	lr
D:\app_for_qianrushi\exam\21\Debug/srcc/flash.c:340
	uint8_t irq_flag=0;
    8400:	2200      	movs	r2, #0
    8402:	e7ec      	b.n	83de <flash_cmd_launch+0x12>
__enable_irq():
D:\app_for_qianrushi\exam\21\02_CPU/core_cmFunc.h:333
  __ASM volatile ("cpsie i" : : : "memory");
    8404:	b662      	cpsie	i
    8406:	e7f4      	b.n	83f2 <flash_cmd_launch+0x26>
flash_cmd_launch():
D:\app_for_qianrushi\exam\21\Debug/srcc/flash.c:358
        return 1 ; //执行命令出错
    8408:	2001      	movs	r0, #1
    840a:	e7f8      	b.n	83fe <flash_cmd_launch+0x32>
    840c:	40020000 	.word	0x40020000

00008410 <flash_erase>:
flash_erase():
D:\app_for_qianrushi\exam\21\Debug/srcc/flash.c:50
{
    8410:	b510      	push	{r4, lr}
D:\app_for_qianrushi\exam\21\Debug/srcc/flash.c:57
    dest.word    = (uint32_t)(sect*(1<<10));
    8412:	0284      	lsls	r4, r0, #10
D:\app_for_qianrushi\exam\21\Debug/srcc/flash.c:60
    FTFA_FCCOB0 = ERSSCR; // 擦除扇区命令
    8414:	4b16      	ldr	r3, [pc, #88]	; (8470 <flash_erase+0x60>)
    8416:	2209      	movs	r2, #9
    8418:	71da      	strb	r2, [r3, #7]
    841a:	0482      	lsls	r2, r0, #18
    841c:	0e12      	lsrs	r2, r2, #24
D:\app_for_qianrushi\exam\21\Debug/srcc/flash.c:63
    FTFA_FCCOB1 = dest.byte[2];
    841e:	719a      	strb	r2, [r3, #6]
    8420:	0680      	lsls	r0, r0, #26
    8422:	0e00      	lsrs	r0, r0, #24
D:\app_for_qianrushi\exam\21\Debug/srcc/flash.c:64
    FTFA_FCCOB2 = dest.byte[1];
    8424:	7158      	strb	r0, [r3, #5]
    8426:	b2e2      	uxtb	r2, r4
D:\app_for_qianrushi\exam\21\Debug/srcc/flash.c:65
    FTFA_FCCOB3 = dest.byte[0];
    8428:	711a      	strb	r2, [r3, #4]
D:\app_for_qianrushi\exam\21\Debug/srcc/flash.c:68
    if(1 == flash_cmd_launch())    //若执行命令出现错误
    842a:	f7ff ffcf 	bl	83cc <flash_cmd_launch>
    842e:	2801      	cmp	r0, #1
    8430:	d01b      	beq.n	846a <flash_erase+0x5a>
D:\app_for_qianrushi\exam\21\Debug/srcc/flash.c:73
    if(dest.word < 0x400)
    8432:	4b10      	ldr	r3, [pc, #64]	; (8474 <flash_erase+0x64>)
    8434:	429c      	cmp	r4, r3
    8436:	d901      	bls.n	843c <flash_erase+0x2c>
D:\app_for_qianrushi\exam\21\Debug/srcc/flash.c:91
    return 0;  //成功返回
    8438:	2000      	movs	r0, #0
D:\app_for_qianrushi\exam\21\Debug/srcc/flash.c:92
}
    843a:	bd10      	pop	{r4, pc}
D:\app_for_qianrushi\exam\21\Debug/srcc/flash.c:76
        FTFA_FCCOB0 = PGM4; 
    843c:	4b0c      	ldr	r3, [pc, #48]	; (8470 <flash_erase+0x60>)
    843e:	2206      	movs	r2, #6
    8440:	71da      	strb	r2, [r3, #7]
D:\app_for_qianrushi\exam\21\Debug/srcc/flash.c:78
        FTFA_FCCOB1 = 0x00;
    8442:	2200      	movs	r2, #0
    8444:	719a      	strb	r2, [r3, #6]
D:\app_for_qianrushi\exam\21\Debug/srcc/flash.c:79
        FTFA_FCCOB2 = 0x04;
    8446:	3204      	adds	r2, #4
    8448:	715a      	strb	r2, [r3, #5]
D:\app_for_qianrushi\exam\21\Debug/srcc/flash.c:80
        FTFA_FCCOB3 = 0x0C;
    844a:	3208      	adds	r2, #8
    844c:	711a      	strb	r2, [r3, #4]
D:\app_for_qianrushi\exam\21\Debug/srcc/flash.c:82
        FTFA_FCCOB4 = 0xFF;
    844e:	32f3      	adds	r2, #243	; 0xf3
    8450:	72da      	strb	r2, [r3, #11]
D:\app_for_qianrushi\exam\21\Debug/srcc/flash.c:83
        FTFA_FCCOB5 = 0xFF;
    8452:	729a      	strb	r2, [r3, #10]
D:\app_for_qianrushi\exam\21\Debug/srcc/flash.c:84
        FTFA_FCCOB6 = 0xFF;
    8454:	725a      	strb	r2, [r3, #9]
D:\app_for_qianrushi\exam\21\Debug/srcc/flash.c:85
        FTFA_FCCOB7 = 0xFE;
    8456:	3a01      	subs	r2, #1
    8458:	721a      	strb	r2, [r3, #8]
D:\app_for_qianrushi\exam\21\Debug/srcc/flash.c:87
        if(1 == flash_cmd_launch())  //若执行命令出现错误
    845a:	f7ff ffb7 	bl	83cc <flash_cmd_launch>
    845e:	2801      	cmp	r0, #1
    8460:	d001      	beq.n	8466 <flash_erase+0x56>
D:\app_for_qianrushi\exam\21\Debug/srcc/flash.c:91
    return 0;  //成功返回
    8462:	2000      	movs	r0, #0
    8464:	e7e9      	b.n	843a <flash_erase+0x2a>
D:\app_for_qianrushi\exam\21\Debug/srcc/flash.c:88
            return 2;   //解锁命令错误
    8466:	3001      	adds	r0, #1
    8468:	e7e7      	b.n	843a <flash_erase+0x2a>
D:\app_for_qianrushi\exam\21\Debug/srcc/flash.c:69
        return 1;     //擦除命令错误
    846a:	2001      	movs	r0, #1
    846c:	e7e5      	b.n	843a <flash_erase+0x2a>
    846e:	46c0      	nop			; (mov r8, r8)
    8470:	40020000 	.word	0x40020000
    8474:	000003ff 	.word	0x000003ff

00008478 <flash_write_physical>:
flash_write_physical():
D:\app_for_qianrushi\exam\21\Debug/srcc/flash.c:147
{
    8478:	b5f8      	push	{r3, r4, r5, r6, r7, lr}
    847a:	000f      	movs	r7, r1
    847c:	0014      	movs	r4, r2
D:\app_for_qianrushi\exam\21\Debug/srcc/flash.c:156
    FTFA_FCCOB0 = PGM4;
    847e:	4b12      	ldr	r3, [pc, #72]	; (84c8 <flash_write_physical+0x50>)
    8480:	2206      	movs	r2, #6
    8482:	71da      	strb	r2, [r3, #7]
D:\app_for_qianrushi\exam\21\Debug/srcc/flash.c:157
    dest.word = destaddr;
    8484:	0005      	movs	r5, r0
D:\app_for_qianrushi\exam\21\Debug/srcc/flash.c:158
    for(size=0; size<N; size+=4, dest.word+=4, buf+=4)
    8486:	2600      	movs	r6, #0
D:\app_for_qianrushi\exam\21\Debug/srcc/flash.c:158 (discriminator 1)
    8488:	42b7      	cmp	r7, r6
    848a:	d918      	bls.n	84be <flash_write_physical+0x46>
D:\app_for_qianrushi\exam\21\Debug/srcc/flash.c:161
        FTFA_FCCOB1 = dest.byte[2];
    848c:	022a      	lsls	r2, r5, #8
    848e:	0e12      	lsrs	r2, r2, #24
    8490:	4b0d      	ldr	r3, [pc, #52]	; (84c8 <flash_write_physical+0x50>)
    8492:	719a      	strb	r2, [r3, #6]
D:\app_for_qianrushi\exam\21\Debug/srcc/flash.c:162
        FTFA_FCCOB2 = dest.byte[1];
    8494:	042a      	lsls	r2, r5, #16
    8496:	0e12      	lsrs	r2, r2, #24
    8498:	715a      	strb	r2, [r3, #5]
D:\app_for_qianrushi\exam\21\Debug/srcc/flash.c:163
        FTFA_FCCOB3 = dest.byte[0];
    849a:	b2ea      	uxtb	r2, r5
    849c:	711a      	strb	r2, [r3, #4]
D:\app_for_qianrushi\exam\21\Debug/srcc/flash.c:166
        FTFA_FCCOB4 = buf[3];//大端寻址
    849e:	78e2      	ldrb	r2, [r4, #3]
    84a0:	72da      	strb	r2, [r3, #11]
D:\app_for_qianrushi\exam\21\Debug/srcc/flash.c:167
        FTFA_FCCOB5 = buf[2];
    84a2:	78a2      	ldrb	r2, [r4, #2]
    84a4:	729a      	strb	r2, [r3, #10]
D:\app_for_qianrushi\exam\21\Debug/srcc/flash.c:168
        FTFA_FCCOB6 = buf[1];
    84a6:	7862      	ldrb	r2, [r4, #1]
    84a8:	725a      	strb	r2, [r3, #9]
D:\app_for_qianrushi\exam\21\Debug/srcc/flash.c:169
        FTFA_FCCOB7 = buf[0];
    84aa:	7822      	ldrb	r2, [r4, #0]
    84ac:	721a      	strb	r2, [r3, #8]
D:\app_for_qianrushi\exam\21\Debug/srcc/flash.c:171
        if(1 == flash_cmd_launch())
    84ae:	f7ff ff8d 	bl	83cc <flash_cmd_launch>
    84b2:	2801      	cmp	r0, #1
    84b4:	d005      	beq.n	84c2 <flash_write_physical+0x4a>
D:\app_for_qianrushi\exam\21\Debug/srcc/flash.c:158 (discriminator 2)
    for(size=0; size<N; size+=4, dest.word+=4, buf+=4)
    84b6:	3604      	adds	r6, #4
    84b8:	3504      	adds	r5, #4
    84ba:	3404      	adds	r4, #4
    84bc:	e7e4      	b.n	8488 <flash_write_physical+0x10>
D:\app_for_qianrushi\exam\21\Debug/srcc/flash.c:175
    return 0;  //成功执行
    84be:	2000      	movs	r0, #0
D:\app_for_qianrushi\exam\21\Debug/srcc/flash.c:176
}
    84c0:	bdf8      	pop	{r3, r4, r5, r6, r7, pc}
D:\app_for_qianrushi\exam\21\Debug/srcc/flash.c:172
            return 2;  //写入命令错误
    84c2:	2002      	movs	r0, #2
    84c4:	e7fc      	b.n	84c0 <flash_write_physical+0x48>
    84c6:	46c0      	nop			; (mov r8, r8)
    84c8:	40020000 	.word	0x40020000

000084cc <gpio_get_port_pin>:
gpio_get_port_pin():
D:\app_for_qianrushi\exam\21\Debug/srcc/gpio.c:348
//功能概要：将传进参数port_pin进行解析，得出具体端口号与引脚号，分别赋值给port与pin,返回。
//       （例：(PTB_NUM)|(9)解析为PORTB与9，并将其分别赋值给port与pin）。
//=====================================================================
void gpio_get_port_pin(uint16_t port_pin,uint8_t* port,uint8_t* pin)
{
	*port = (port_pin>>8);
    84cc:	0a03      	lsrs	r3, r0, #8
    84ce:	700b      	strb	r3, [r1, #0]
D:\app_for_qianrushi\exam\21\Debug/srcc/gpio.c:349
	*pin = port_pin;
    84d0:	7010      	strb	r0, [r2, #0]
D:\app_for_qianrushi\exam\21\Debug/srcc/gpio.c:350
}
    84d2:	4770      	bx	lr

000084d4 <gpio_set>:
gpio_set():
D:\app_for_qianrushi\exam\21\Debug/srcc/gpio.c:67
{
    84d4:	b530      	push	{r4, r5, lr}
    84d6:	b083      	sub	sp, #12
    84d8:	000d      	movs	r5, r1
D:\app_for_qianrushi\exam\21\Debug/srcc/gpio.c:72
	gpio_get_port_pin(port_pin,&port,&pin);
    84da:	466b      	mov	r3, sp
    84dc:	1ddc      	adds	r4, r3, #7
    84de:	1d9a      	adds	r2, r3, #6
    84e0:	0021      	movs	r1, r4
    84e2:	f7ff fff3 	bl	84cc <gpio_get_port_pin>
D:\app_for_qianrushi\exam\21\Debug/srcc/gpio.c:75
	gpio_ptr = GPIO_ARR[port];
    84e6:	7823      	ldrb	r3, [r4, #0]
    84e8:	009b      	lsls	r3, r3, #2
    84ea:	4a0a      	ldr	r2, [pc, #40]	; (8514 <gpio_set+0x40>)
    84ec:	589b      	ldr	r3, [r3, r2]
D:\app_for_qianrushi\exam\21\Debug/srcc/gpio.c:78
	if(state == 1)
    84ee:	2d01      	cmp	r5, #1
    84f0:	d008      	beq.n	8504 <gpio_set+0x30>
D:\app_for_qianrushi\exam\21\Debug/srcc/gpio.c:84
		BCLR(pin,GPIO_PDOR_REG(gpio_ptr));
    84f2:	681a      	ldr	r2, [r3, #0]
    84f4:	4669      	mov	r1, sp
    84f6:	7988      	ldrb	r0, [r1, #6]
    84f8:	2101      	movs	r1, #1
    84fa:	4081      	lsls	r1, r0
    84fc:	438a      	bics	r2, r1
    84fe:	601a      	str	r2, [r3, #0]
D:\app_for_qianrushi\exam\21\Debug/srcc/gpio.c:86
}
    8500:	b003      	add	sp, #12
    8502:	bd30      	pop	{r4, r5, pc}
D:\app_for_qianrushi\exam\21\Debug/srcc/gpio.c:80
		BSET(pin,GPIO_PDOR_REG(gpio_ptr));
    8504:	681a      	ldr	r2, [r3, #0]
    8506:	4669      	mov	r1, sp
    8508:	7988      	ldrb	r0, [r1, #6]
    850a:	2101      	movs	r1, #1
    850c:	4081      	lsls	r1, r0
    850e:	430a      	orrs	r2, r1
    8510:	601a      	str	r2, [r3, #0]
    8512:	e7f5      	b.n	8500 <gpio_set+0x2c>
    8514:	00009930 	.word	0x00009930

00008518 <gpio_init>:
gpio_init():
D:\app_for_qianrushi\exam\21\Debug/srcc/gpio.c:31
{
    8518:	b5f0      	push	{r4, r5, r6, r7, lr}
    851a:	b085      	sub	sp, #20
    851c:	0004      	movs	r4, r0
    851e:	000f      	movs	r7, r1
    8520:	9201      	str	r2, [sp, #4]
D:\app_for_qianrushi\exam\21\Debug/srcc/gpio.c:37
	gpio_get_port_pin(port_pin,&port,&pin);
    8522:	ab02      	add	r3, sp, #8
    8524:	1d9e      	adds	r6, r3, #6
    8526:	1ddd      	adds	r5, r3, #7
    8528:	0032      	movs	r2, r6
    852a:	0029      	movs	r1, r5
    852c:	f7ff ffce 	bl	84cc <gpio_get_port_pin>
D:\app_for_qianrushi\exam\21\Debug/srcc/gpio.c:39
	port_ptr = PORT_ARR[port];        //获得PORT模块相应口基地址
    8530:	782a      	ldrb	r2, [r5, #0]
    8532:	0092      	lsls	r2, r2, #2
    8534:	4b13      	ldr	r3, [pc, #76]	; (8584 <gpio_init+0x6c>)
    8536:	58d3      	ldr	r3, [r2, r3]
D:\app_for_qianrushi\exam\21\Debug/srcc/gpio.c:40
	gpio_ptr = GPIO_ARR[port];        //获得GPIO模块相应口基地址
    8538:	4913      	ldr	r1, [pc, #76]	; (8588 <gpio_init+0x70>)
    853a:	5850      	ldr	r0, [r2, r1]
D:\app_for_qianrushi\exam\21\Debug/srcc/gpio.c:43
	PORT_PCR_REG(port_ptr,pin) &= ~PORT_PCR_MUX_MASK;//置D10-D8=000
    853c:	7832      	ldrb	r2, [r6, #0]
    853e:	0092      	lsls	r2, r2, #2
    8540:	58d1      	ldr	r1, [r2, r3]
    8542:	4d12      	ldr	r5, [pc, #72]	; (858c <gpio_init+0x74>)
    8544:	4029      	ands	r1, r5
    8546:	50d1      	str	r1, [r2, r3]
D:\app_for_qianrushi\exam\21\Debug/srcc/gpio.c:44
	PORT_PCR_REG(port_ptr,pin) |= PORT_PCR_MUX(1);//置D10-D8=001
    8548:	7832      	ldrb	r2, [r6, #0]
    854a:	0092      	lsls	r2, r2, #2
    854c:	58d6      	ldr	r6, [r2, r3]
    854e:	2180      	movs	r1, #128	; 0x80
    8550:	0049      	lsls	r1, r1, #1
    8552:	4331      	orrs	r1, r6
    8554:	50d1      	str	r1, [r2, r3]
D:\app_for_qianrushi\exam\21\Debug/srcc/gpio.c:47
	if(dir == 1)  //输出引脚
    8556:	2f01      	cmp	r7, #1
    8558:	d008      	beq.n	856c <gpio_init+0x54>
D:\app_for_qianrushi\exam\21\Debug/srcc/gpio.c:56
		BCLR(pin,GPIO_PDDR_REG(gpio_ptr));//数据方向寄存器的pin位=0，定义为输入
    855a:	6943      	ldr	r3, [r0, #20]
    855c:	aa02      	add	r2, sp, #8
    855e:	7991      	ldrb	r1, [r2, #6]
    8560:	2201      	movs	r2, #1
    8562:	408a      	lsls	r2, r1
    8564:	4393      	bics	r3, r2
    8566:	6143      	str	r3, [r0, #20]
D:\app_for_qianrushi\exam\21\Debug/srcc/gpio.c:58
}
    8568:	b005      	add	sp, #20
    856a:	bdf0      	pop	{r4, r5, r6, r7, pc}
D:\app_for_qianrushi\exam\21\Debug/srcc/gpio.c:50
		BSET(pin,GPIO_PDDR_REG(gpio_ptr));
    856c:	6943      	ldr	r3, [r0, #20]
    856e:	aa02      	add	r2, sp, #8
    8570:	7991      	ldrb	r1, [r2, #6]
    8572:	2201      	movs	r2, #1
    8574:	408a      	lsls	r2, r1
    8576:	4313      	orrs	r3, r2
    8578:	6143      	str	r3, [r0, #20]
D:\app_for_qianrushi\exam\21\Debug/srcc/gpio.c:52
		gpio_set(port_pin,state);   
    857a:	9901      	ldr	r1, [sp, #4]
    857c:	0020      	movs	r0, r4
    857e:	f7ff ffa9 	bl	84d4 <gpio_set>
    8582:	e7f1      	b.n	8568 <gpio_init+0x50>
    8584:	00009944 	.word	0x00009944
    8588:	00009930 	.word	0x00009930
    858c:	fffff8ff 	.word	0xfffff8ff

00008590 <gpio_get>:
gpio_get():
D:\app_for_qianrushi\exam\21\Debug/srcc/gpio.c:94
{
    8590:	b530      	push	{r4, r5, lr}
    8592:	b083      	sub	sp, #12
D:\app_for_qianrushi\exam\21\Debug/srcc/gpio.c:99
	gpio_get_port_pin(port_pin,&port,&pin);
    8594:	466b      	mov	r3, sp
    8596:	1d9c      	adds	r4, r3, #6
    8598:	1ddd      	adds	r5, r3, #7
    859a:	0022      	movs	r2, r4
    859c:	0029      	movs	r1, r5
    859e:	f7ff ff95 	bl	84cc <gpio_get_port_pin>
D:\app_for_qianrushi\exam\21\Debug/srcc/gpio.c:102
	gpio_ptr = GPIO_ARR[port];
    85a2:	782b      	ldrb	r3, [r5, #0]
    85a4:	009b      	lsls	r3, r3, #2
    85a6:	4a05      	ldr	r2, [pc, #20]	; (85bc <gpio_get+0x2c>)
    85a8:	589b      	ldr	r3, [r3, r2]
D:\app_for_qianrushi\exam\21\Debug/srcc/gpio.c:105
	return (BGET(pin,GPIO_PDIR_REG(gpio_ptr)) >=1 ? 1:0);
    85aa:	6918      	ldr	r0, [r3, #16]
    85ac:	7823      	ldrb	r3, [r4, #0]
    85ae:	40d8      	lsrs	r0, r3
    85b0:	0003      	movs	r3, r0
    85b2:	2001      	movs	r0, #1
    85b4:	4018      	ands	r0, r3
D:\app_for_qianrushi\exam\21\Debug/srcc/gpio.c:106
}
    85b6:	b003      	add	sp, #12
    85b8:	bd30      	pop	{r4, r5, pc}
    85ba:	46c0      	nop			; (mov r8, r8)
    85bc:	00009930 	.word	0x00009930

000085c0 <gpio_pull>:
gpio_pull():
D:\app_for_qianrushi\exam\21\Debug/srcc/gpio.c:135
{
    85c0:	b570      	push	{r4, r5, r6, lr}
    85c2:	b082      	sub	sp, #8
    85c4:	000d      	movs	r5, r1
D:\app_for_qianrushi\exam\21\Debug/srcc/gpio.c:140
	gpio_get_port_pin(port_pin,&port,&pin);
    85c6:	466b      	mov	r3, sp
    85c8:	1d9c      	adds	r4, r3, #6
    85ca:	1dde      	adds	r6, r3, #7
    85cc:	0022      	movs	r2, r4
    85ce:	0031      	movs	r1, r6
    85d0:	f7ff ff7c 	bl	84cc <gpio_get_port_pin>
D:\app_for_qianrushi\exam\21\Debug/srcc/gpio.c:143
	port_ptr = PORT_ARR[port];               //获得PORT模块相应口基地址
    85d4:	7833      	ldrb	r3, [r6, #0]
    85d6:	009b      	lsls	r3, r3, #2
    85d8:	4a11      	ldr	r2, [pc, #68]	; (8620 <gpio_pull+0x60>)
    85da:	589b      	ldr	r3, [r3, r2]
D:\app_for_qianrushi\exam\21\Debug/srcc/gpio.c:146
	BCLR(PORT_PCR_DSE_SHIFT,PORT_PCR_REG(port_ptr,pin));
    85dc:	7822      	ldrb	r2, [r4, #0]
    85de:	0092      	lsls	r2, r2, #2
    85e0:	58d1      	ldr	r1, [r2, r3]
    85e2:	2040      	movs	r0, #64	; 0x40
    85e4:	4381      	bics	r1, r0
    85e6:	50d1      	str	r1, [r2, r3]
D:\app_for_qianrushi\exam\21\Debug/srcc/gpio.c:148
	BSET(PORT_PCR_PE_SHIFT,PORT_PCR_REG(port_ptr,pin));
    85e8:	7822      	ldrb	r2, [r4, #0]
    85ea:	0092      	lsls	r2, r2, #2
    85ec:	58d1      	ldr	r1, [r2, r3]
    85ee:	383e      	subs	r0, #62	; 0x3e
    85f0:	4301      	orrs	r1, r0
    85f2:	50d1      	str	r1, [r2, r3]
D:\app_for_qianrushi\exam\21\Debug/srcc/gpio.c:150
	if(pullselect == 1)
    85f4:	2d01      	cmp	r5, #1
    85f6:	d009      	beq.n	860c <gpio_pull+0x4c>
D:\app_for_qianrushi\exam\21\Debug/srcc/gpio.c:156
		BCLR(PORT_PCR_PS_SHIFT,PORT_PCR_REG(port_ptr,pin));
    85f8:	466a      	mov	r2, sp
    85fa:	3206      	adds	r2, #6
    85fc:	7812      	ldrb	r2, [r2, #0]
    85fe:	0092      	lsls	r2, r2, #2
    8600:	58d1      	ldr	r1, [r2, r3]
    8602:	2001      	movs	r0, #1
    8604:	4381      	bics	r1, r0
    8606:	50d1      	str	r1, [r2, r3]
D:\app_for_qianrushi\exam\21\Debug/srcc/gpio.c:158
}
    8608:	b002      	add	sp, #8
    860a:	bd70      	pop	{r4, r5, r6, pc}
D:\app_for_qianrushi\exam\21\Debug/srcc/gpio.c:152
		BSET(PORT_PCR_PS_SHIFT,PORT_PCR_REG(port_ptr,pin));
    860c:	466a      	mov	r2, sp
    860e:	3206      	adds	r2, #6
    8610:	7812      	ldrb	r2, [r2, #0]
    8612:	0092      	lsls	r2, r2, #2
    8614:	58d1      	ldr	r1, [r2, r3]
    8616:	3801      	subs	r0, #1
    8618:	4301      	orrs	r1, r0
    861a:	50d1      	str	r1, [r2, r3]
    861c:	e7f4      	b.n	8608 <gpio_pull+0x48>
    861e:	46c0      	nop			; (mov r8, r8)
    8620:	00009944 	.word	0x00009944

00008624 <wdog_feed>:
wdog_feed():
D:\app_for_qianrushi\exam\21\Debug/srcc/wdog.c:51
//函数返回：无
//复位序列：先写0x55，后写0xAA
//=========================================================================
void wdog_feed(void)
{
    SIM_SRVCOP = 0x55;
    8624:	4a03      	ldr	r2, [pc, #12]	; (8634 <wdog_feed+0x10>)
    8626:	4b04      	ldr	r3, [pc, #16]	; (8638 <wdog_feed+0x14>)
    8628:	2155      	movs	r1, #85	; 0x55
    862a:	50d1      	str	r1, [r2, r3]
D:\app_for_qianrushi\exam\21\Debug/srcc/wdog.c:52
    SIM_SRVCOP = 0xAA;
    862c:	3155      	adds	r1, #85	; 0x55
    862e:	50d1      	str	r1, [r2, r3]
D:\app_for_qianrushi\exam\21\Debug/srcc/wdog.c:53
}
    8630:	4770      	bx	lr
    8632:	46c0      	nop			; (mov r8, r8)
    8634:	40047000 	.word	0x40047000
    8638:	00001104 	.word	0x00001104

0000863c <spi_init>:
spi_init():
D:\app_for_qianrushi\exam\21\Debug/srcc/spi.c:23
//       CPHA：CPHA=0相位为0； CPHA=1相位为1；
//函数返回：无
//=====================================================================
void spi_init(uint8_t No,uint8_t MSTR,uint16_t BaudRate,\
uint8_t CPOL,uint8_t CPHA)
{
    863c:	b5f8      	push	{r3, r4, r5, r6, r7, lr}
    863e:	000d      	movs	r5, r1
    8640:	0014      	movs	r4, r2
    8642:	001f      	movs	r7, r3
    8644:	ab06      	add	r3, sp, #24
    8646:	781e      	ldrb	r6, [r3, #0]
D:\app_for_qianrushi\exam\21\Debug/srcc/spi.c:27
    uint8_t BaudRate_Mode;
    uint8_t BaudRate_High;
    uint8_t BaudRate_Low;
    if(No<0||No>1)   No=0;    //如果SPI号参数错误则强制选择 0号模块
    8648:	2801      	cmp	r0, #1
    864a:	d802      	bhi.n	8652 <spi_init+0x16>
D:\app_for_qianrushi\exam\21\Debug/srcc/spi.c:28
    if(No==0)                         //初始化SPI0功能
    864c:	2800      	cmp	r0, #0
    864e:	d000      	beq.n	8652 <spi_init+0x16>
    8650:	e076      	b.n	8740 <spi_init+0x104>
D:\app_for_qianrushi\exam\21\Debug/srcc/spi.c:30
    {
        BSET(SIM_SCGC4_SPI0_SHIFT,SIM_SCGC4);   //打开SPI0模块时钟。
    8652:	4978      	ldr	r1, [pc, #480]	; (8834 <spi_init+0x1f8>)
    8654:	4a78      	ldr	r2, [pc, #480]	; (8838 <spi_init+0x1fc>)
    8656:	5888      	ldr	r0, [r1, r2]
    8658:	2380      	movs	r3, #128	; 0x80
    865a:	03db      	lsls	r3, r3, #15
    865c:	4303      	orrs	r3, r0
    865e:	508b      	str	r3, [r1, r2]
D:\app_for_qianrushi\exam\21\Debug/srcc/spi.c:32
        //引脚复用为SPI0功能
        PORTC_PCR4=(0|PORT_PCR_MUX(0x02));        //选择PTC4的SS功能
    8660:	4b76      	ldr	r3, [pc, #472]	; (883c <spi_init+0x200>)
    8662:	2280      	movs	r2, #128	; 0x80
    8664:	0092      	lsls	r2, r2, #2
    8666:	611a      	str	r2, [r3, #16]
D:\app_for_qianrushi\exam\21\Debug/srcc/spi.c:33
        PORTC_PCR5=(0|PORT_PCR_MUX(0x02));        //选择PTC5的SCK功能
    8668:	615a      	str	r2, [r3, #20]
D:\app_for_qianrushi\exam\21\Debug/srcc/spi.c:34
        PORTC_PCR6=(0|PORT_PCR_MUX(0x02));        //选择PTC6的MOSI功能
    866a:	619a      	str	r2, [r3, #24]
D:\app_for_qianrushi\exam\21\Debug/srcc/spi.c:35
        PORTC_PCR7=(0|PORT_PCR_MUX(0x02));        //选择PTC7的MIOS功能
    866c:	61da      	str	r2, [r3, #28]
D:\app_for_qianrushi\exam\21\Debug/srcc/spi.c:36
        wdog_feed();
    866e:	f7ff ffd9 	bl	8624 <wdog_feed>
D:\app_for_qianrushi\exam\21\Debug/srcc/spi.c:38
        
        SPI0_C1=0x00;                           //SPI控制寄存器1清零
    8672:	4b73      	ldr	r3, [pc, #460]	; (8840 <spi_init+0x204>)
    8674:	2200      	movs	r2, #0
    8676:	70da      	strb	r2, [r3, #3]
D:\app_for_qianrushi\exam\21\Debug/srcc/spi.c:39
        BSET(SPI_C1_SPE_SHIFT,SPI0_C1);         //使能SPI模块
    8678:	78da      	ldrb	r2, [r3, #3]
    867a:	2140      	movs	r1, #64	; 0x40
    867c:	430a      	orrs	r2, r1
    867e:	70da      	strb	r2, [r3, #3]
D:\app_for_qianrushi\exam\21\Debug/srcc/spi.c:43
        
        //MSTR=1为主机模式；
        //MSTR=0为从机模式（因MSTR初始值为0，无需更改）
        (MSTR==1)?BSET(SPI_C1_MSTR_SHIFT,SPI0_C1):\
    8680:	2d01      	cmp	r5, #1
    8682:	d02d      	beq.n	86e0 <spi_init+0xa4>
D:\app_for_qianrushi\exam\21\Debug/srcc/spi.c:44 (discriminator 2)
        BSET(SPI_C1_SPIE_SHIFT,SPI0_C1);
    8684:	4a6e      	ldr	r2, [pc, #440]	; (8840 <spi_init+0x204>)
    8686:	78d3      	ldrb	r3, [r2, #3]
    8688:	2180      	movs	r1, #128	; 0x80
    868a:	4249      	negs	r1, r1
    868c:	430b      	orrs	r3, r1
    868e:	b2db      	uxtb	r3, r3
    8690:	70d3      	strb	r3, [r2, #3]
D:\app_for_qianrushi\exam\21\Debug/srcc/spi.c:47
        
        //时钟极性配置，CPOL=0，平时时钟为高电平，反之CPOL=1，平时时钟为低电平
        (0==CPOL)?BCLR(SPI_C1_CPOL_SHIFT,SPI0_C1):\
    8692:	2f00      	cmp	r7, #0
    8694:	d12a      	bne.n	86ec <spi_init+0xb0>
D:\app_for_qianrushi\exam\21\Debug/srcc/spi.c:47 (discriminator 1)
    8696:	4a6a      	ldr	r2, [pc, #424]	; (8840 <spi_init+0x204>)
    8698:	78d3      	ldrb	r3, [r2, #3]
    869a:	2108      	movs	r1, #8
    869c:	438b      	bics	r3, r1
    869e:	70d3      	strb	r3, [r2, #3]
D:\app_for_qianrushi\exam\21\Debug/srcc/spi.c:51
        BSET(SPI_C1_CPOL_SHIFT,SPI0_C1);
        
        //时钟相位CPHA
        (0 == CPHA)?BCLR(SPI_C1_CPHA_SHIFT,SPI0_C1):\
    86a0:	2e00      	cmp	r6, #0
    86a2:	d129      	bne.n	86f8 <spi_init+0xbc>
D:\app_for_qianrushi\exam\21\Debug/srcc/spi.c:51 (discriminator 1)
    86a4:	4a66      	ldr	r2, [pc, #408]	; (8840 <spi_init+0x204>)
    86a6:	78d3      	ldrb	r3, [r2, #3]
    86a8:	2104      	movs	r1, #4
    86aa:	438b      	bics	r3, r1
    86ac:	70d3      	strb	r3, [r2, #3]
D:\app_for_qianrushi\exam\21\Debug/srcc/spi.c:53
        BSET(SPI_C1_CPHA_SHIFT,SPI0_C1);
        wdog_feed();
    86ae:	f7ff ffb9 	bl	8624 <wdog_feed>
D:\app_for_qianrushi\exam\21\Debug/srcc/spi.c:55
        ////SSOE为1,MODFEN为1，配置本模块为自动SS输出
        BSET(SPI_C1_SSOE_SHIFT,SPI0_C1);
    86b2:	4b63      	ldr	r3, [pc, #396]	; (8840 <spi_init+0x204>)
    86b4:	78da      	ldrb	r2, [r3, #3]
    86b6:	2102      	movs	r1, #2
    86b8:	430a      	orrs	r2, r1
    86ba:	70da      	strb	r2, [r3, #3]
D:\app_for_qianrushi\exam\21\Debug/srcc/spi.c:57
        //对SPI0的C1寄存器配置为主机模式、从机选择自动模式并使能SPI0模块。
        SPI0_C2=0x00;
    86bc:	2200      	movs	r2, #0
    86be:	709a      	strb	r2, [r3, #2]
D:\app_for_qianrushi\exam\21\Debug/srcc/spi.c:58
        if(MSTR == 1 )  //主机模式
    86c0:	2d01      	cmp	r5, #1
    86c2:	d01f      	beq.n	8704 <spi_init+0xc8>
D:\app_for_qianrushi\exam\21\Debug/srcc/spi.c:60
        BSET(SPI_C2_MODFEN_SHIFT,SPI0_C2);
        SPI0_BR = 0x00U;//波特率寄存器清零
    86c4:	4b5e      	ldr	r3, [pc, #376]	; (8840 <spi_init+0x204>)
    86c6:	2200      	movs	r2, #0
    86c8:	705a      	strb	r2, [r3, #1]
D:\app_for_qianrushi\exam\21\Debug/srcc/spi.c:64
        //重新设置波特率
        BaudRate_High=0;
        BaudRate_Low=0;
        BaudRate_Mode=24000/BaudRate;
    86ca:	0021      	movs	r1, r4
    86cc:	485d      	ldr	r0, [pc, #372]	; (8844 <spi_init+0x208>)
    86ce:	f7fe fb75 	bl	6dbc <__divsi3>
    86d2:	b2c4      	uxtb	r4, r0
D:\app_for_qianrushi\exam\21\Debug/srcc/spi.c:65
        wdog_feed();
    86d4:	f7ff ffa6 	bl	8624 <wdog_feed>
D:\app_for_qianrushi\exam\21\Debug/srcc/spi.c:66
        if(BaudRate_Mode <= 8)
    86d8:	2c08      	cmp	r4, #8
    86da:	d919      	bls.n	8710 <spi_init+0xd4>
D:\app_for_qianrushi\exam\21\Debug/srcc/spi.c:63
        BaudRate_Low=0;
    86dc:	2500      	movs	r5, #0
    86de:	e023      	b.n	8728 <spi_init+0xec>
D:\app_for_qianrushi\exam\21\Debug/srcc/spi.c:43 (discriminator 1)
        (MSTR==1)?BSET(SPI_C1_MSTR_SHIFT,SPI0_C1):\
    86e0:	001a      	movs	r2, r3
    86e2:	78db      	ldrb	r3, [r3, #3]
    86e4:	2110      	movs	r1, #16
    86e6:	430b      	orrs	r3, r1
    86e8:	70d3      	strb	r3, [r2, #3]
    86ea:	e7d2      	b.n	8692 <spi_init+0x56>
D:\app_for_qianrushi\exam\21\Debug/srcc/spi.c:48 (discriminator 2)
        BSET(SPI_C1_CPOL_SHIFT,SPI0_C1);
    86ec:	4a54      	ldr	r2, [pc, #336]	; (8840 <spi_init+0x204>)
    86ee:	78d3      	ldrb	r3, [r2, #3]
    86f0:	2108      	movs	r1, #8
    86f2:	430b      	orrs	r3, r1
    86f4:	70d3      	strb	r3, [r2, #3]
    86f6:	e7d3      	b.n	86a0 <spi_init+0x64>
D:\app_for_qianrushi\exam\21\Debug/srcc/spi.c:52 (discriminator 2)
        BSET(SPI_C1_CPHA_SHIFT,SPI0_C1);
    86f8:	4a51      	ldr	r2, [pc, #324]	; (8840 <spi_init+0x204>)
    86fa:	78d3      	ldrb	r3, [r2, #3]
    86fc:	2104      	movs	r1, #4
    86fe:	430b      	orrs	r3, r1
    8700:	70d3      	strb	r3, [r2, #3]
    8702:	e7d4      	b.n	86ae <spi_init+0x72>
D:\app_for_qianrushi\exam\21\Debug/srcc/spi.c:59
        BSET(SPI_C2_MODFEN_SHIFT,SPI0_C2);
    8704:	001a      	movs	r2, r3
    8706:	789b      	ldrb	r3, [r3, #2]
    8708:	2110      	movs	r1, #16
    870a:	430b      	orrs	r3, r1
    870c:	7093      	strb	r3, [r2, #2]
    870e:	e7d9      	b.n	86c4 <spi_init+0x88>
D:\app_for_qianrushi\exam\21\Debug/srcc/spi.c:68
        {
            SPI0_BR = (BaudRate_Mode - 1) << 4;
    8710:	3c01      	subs	r4, #1
    8712:	b2e3      	uxtb	r3, r4
    8714:	011b      	lsls	r3, r3, #4
    8716:	b2db      	uxtb	r3, r3
    8718:	4a49      	ldr	r2, [pc, #292]	; (8840 <spi_init+0x204>)
    871a:	7053      	strb	r3, [r2, #1]
    871c:	e00f      	b.n	873e <spi_init+0x102>
D:\app_for_qianrushi\exam\21\Debug/srcc/spi.c:75
        else
        {
            
            while(BaudRate_Mode / 2 > 8)
            {
                wdog_feed();
    871e:	f7ff ff81 	bl	8624 <wdog_feed>
D:\app_for_qianrushi\exam\21\Debug/srcc/spi.c:76
                BaudRate_Low++;
    8722:	3501      	adds	r5, #1
    8724:	b2ed      	uxtb	r5, r5
D:\app_for_qianrushi\exam\21\Debug/srcc/spi.c:77
                BaudRate_Mode=BaudRate_Mode/2;
    8726:	0864      	lsrs	r4, r4, #1
D:\app_for_qianrushi\exam\21\Debug/srcc/spi.c:73
            while(BaudRate_Mode / 2 > 8)
    8728:	2c11      	cmp	r4, #17
    872a:	d8f8      	bhi.n	871e <spi_init+0xe2>
D:\app_for_qianrushi\exam\21\Debug/srcc/spi.c:79
            }
            BaudRate_High=--BaudRate_Mode;
    872c:	3c01      	subs	r4, #1
    872e:	b2e4      	uxtb	r4, r4
D:\app_for_qianrushi\exam\21\Debug/srcc/spi.c:80
            SPI0_BR=BaudRate_High<<4;//数值赋给SPI0_BR的SPPR的D6D5D4位
    8730:	0124      	lsls	r4, r4, #4
    8732:	b2e4      	uxtb	r4, r4
    8734:	4b42      	ldr	r3, [pc, #264]	; (8840 <spi_init+0x204>)
    8736:	705c      	strb	r4, [r3, #1]
D:\app_for_qianrushi\exam\21\Debug/srcc/spi.c:81
            SPI0_BR|=BaudRate_Low;//赋值给SPI0_BR的SPR的 D2D1D0位
    8738:	785a      	ldrb	r2, [r3, #1]
    873a:	4315      	orrs	r5, r2
    873c:	705d      	strb	r5, [r3, #1]
D:\app_for_qianrushi\exam\21\Debug/srcc/spi.c:140
            BaudRate_High=--BaudRate_Mode;
            SPI0_BR=BaudRate_High<<4;//数值赋给SPI0_BR的SPPR的D6D5D4位
            SPI0_BR|=BaudRate_Low;//赋值给SPI0_BR的SPR的 D2D1D0位
        }
    }
}
    873e:	bdf8      	pop	{r3, r4, r5, r6, r7, pc}
D:\app_for_qianrushi\exam\21\Debug/srcc/spi.c:86
        wdog_feed();
    8740:	f7ff ff70 	bl	8624 <wdog_feed>
D:\app_for_qianrushi\exam\21\Debug/srcc/spi.c:87
        BSET(SIM_SCGC4_SPI1_SHIFT,SIM_SCGC4);   //打开SPI1模块时钟。
    8744:	493b      	ldr	r1, [pc, #236]	; (8834 <spi_init+0x1f8>)
    8746:	4a3c      	ldr	r2, [pc, #240]	; (8838 <spi_init+0x1fc>)
    8748:	5888      	ldr	r0, [r1, r2]
    874a:	2380      	movs	r3, #128	; 0x80
    874c:	041b      	lsls	r3, r3, #16
    874e:	4303      	orrs	r3, r0
    8750:	508b      	str	r3, [r1, r2]
D:\app_for_qianrushi\exam\21\Debug/srcc/spi.c:89
        PORTD_PCR4=(0|PORT_PCR_MUX(0x02));        //选择PTD4的SS功能
    8752:	4b3d      	ldr	r3, [pc, #244]	; (8848 <spi_init+0x20c>)
    8754:	2280      	movs	r2, #128	; 0x80
    8756:	0092      	lsls	r2, r2, #2
    8758:	611a      	str	r2, [r3, #16]
D:\app_for_qianrushi\exam\21\Debug/srcc/spi.c:90
        PORTD_PCR5=(0|PORT_PCR_MUX(0x02));        //选择PTD5的SCK功能
    875a:	615a      	str	r2, [r3, #20]
D:\app_for_qianrushi\exam\21\Debug/srcc/spi.c:91
        PORTD_PCR6=(0|PORT_PCR_MUX(0x02));        //选择PTD6的MOSI功能
    875c:	619a      	str	r2, [r3, #24]
D:\app_for_qianrushi\exam\21\Debug/srcc/spi.c:92
        PORTD_PCR7=(0|PORT_PCR_MUX(0x02));        //选择PTD7的MIOS功能
    875e:	61da      	str	r2, [r3, #28]
D:\app_for_qianrushi\exam\21\Debug/srcc/spi.c:93
        wdog_feed();
    8760:	f7ff ff60 	bl	8624 <wdog_feed>
D:\app_for_qianrushi\exam\21\Debug/srcc/spi.c:94
        SPI1_C1=0x00;                     //SPI控制寄存器1清零
    8764:	4b39      	ldr	r3, [pc, #228]	; (884c <spi_init+0x210>)
    8766:	2200      	movs	r2, #0
    8768:	70da      	strb	r2, [r3, #3]
D:\app_for_qianrushi\exam\21\Debug/srcc/spi.c:95
        BSET(SPI_C1_SPE_SHIFT,SPI1_C1);   //使能SPI模块
    876a:	78da      	ldrb	r2, [r3, #3]
    876c:	2140      	movs	r1, #64	; 0x40
    876e:	430a      	orrs	r2, r1
    8770:	70da      	strb	r2, [r3, #3]
D:\app_for_qianrushi\exam\21\Debug/srcc/spi.c:98
        (MSTR==1)?BSET(SPI_C1_MSTR_SHIFT,SPI1_C1):\
    8772:	2d01      	cmp	r5, #1
    8774:	d02d      	beq.n	87d2 <spi_init+0x196>
D:\app_for_qianrushi\exam\21\Debug/srcc/spi.c:99 (discriminator 2)
        BSET(SPI_C1_SPIE_SHIFT,SPI1_C1);
    8776:	4a35      	ldr	r2, [pc, #212]	; (884c <spi_init+0x210>)
    8778:	78d3      	ldrb	r3, [r2, #3]
    877a:	2180      	movs	r1, #128	; 0x80
    877c:	4249      	negs	r1, r1
    877e:	430b      	orrs	r3, r1
    8780:	b2db      	uxtb	r3, r3
    8782:	70d3      	strb	r3, [r2, #3]
D:\app_for_qianrushi\exam\21\Debug/srcc/spi.c:102
        (0 == CPOL)?BCLR(SPI_C1_CPOL_SHIFT,SPI1_C1):\
    8784:	2f00      	cmp	r7, #0
    8786:	d12a      	bne.n	87de <spi_init+0x1a2>
D:\app_for_qianrushi\exam\21\Debug/srcc/spi.c:102 (discriminator 1)
    8788:	4a30      	ldr	r2, [pc, #192]	; (884c <spi_init+0x210>)
    878a:	78d3      	ldrb	r3, [r2, #3]
    878c:	2108      	movs	r1, #8
    878e:	438b      	bics	r3, r1
    8790:	70d3      	strb	r3, [r2, #3]
D:\app_for_qianrushi\exam\21\Debug/srcc/spi.c:107
        (0 == CPHA)?BCLR(SPI_C1_CPHA_SHIFT,SPI1_C1): \
    8792:	2e00      	cmp	r6, #0
    8794:	d129      	bne.n	87ea <spi_init+0x1ae>
D:\app_for_qianrushi\exam\21\Debug/srcc/spi.c:107 (discriminator 1)
    8796:	4a2d      	ldr	r2, [pc, #180]	; (884c <spi_init+0x210>)
    8798:	78d3      	ldrb	r3, [r2, #3]
    879a:	2104      	movs	r1, #4
    879c:	438b      	bics	r3, r1
    879e:	70d3      	strb	r3, [r2, #3]
D:\app_for_qianrushi\exam\21\Debug/srcc/spi.c:109
        wdog_feed();
    87a0:	f7ff ff40 	bl	8624 <wdog_feed>
D:\app_for_qianrushi\exam\21\Debug/srcc/spi.c:110
        BSET(SPI_C1_SSOE_SHIFT,SPI1_C1);//SSOE为1,MODFEN为1，配置本模块为自动SS输出
    87a4:	4b29      	ldr	r3, [pc, #164]	; (884c <spi_init+0x210>)
    87a6:	78da      	ldrb	r2, [r3, #3]
    87a8:	2102      	movs	r1, #2
    87aa:	430a      	orrs	r2, r1
    87ac:	70da      	strb	r2, [r3, #3]
D:\app_for_qianrushi\exam\21\Debug/srcc/spi.c:114
        SPI1_C2 = 0x00U;
    87ae:	2200      	movs	r2, #0
    87b0:	709a      	strb	r2, [r3, #2]
D:\app_for_qianrushi\exam\21\Debug/srcc/spi.c:115
        if(MSTR == 1 )  //主机模式
    87b2:	2d01      	cmp	r5, #1
    87b4:	d01f      	beq.n	87f6 <spi_init+0x1ba>
D:\app_for_qianrushi\exam\21\Debug/srcc/spi.c:117
        SPI1_BR = 0x00U;
    87b6:	4b25      	ldr	r3, [pc, #148]	; (884c <spi_init+0x210>)
    87b8:	2200      	movs	r2, #0
    87ba:	705a      	strb	r2, [r3, #1]
D:\app_for_qianrushi\exam\21\Debug/srcc/spi.c:121
        BaudRate_Mode=24000/BaudRate;   //取除数用于寄存器中数据计算
    87bc:	0021      	movs	r1, r4
    87be:	4821      	ldr	r0, [pc, #132]	; (8844 <spi_init+0x208>)
    87c0:	f7fe fafc 	bl	6dbc <__divsi3>
    87c4:	b2c4      	uxtb	r4, r0
D:\app_for_qianrushi\exam\21\Debug/srcc/spi.c:122
        wdog_feed();
    87c6:	f7ff ff2d 	bl	8624 <wdog_feed>
D:\app_for_qianrushi\exam\21\Debug/srcc/spi.c:123
        if(BaudRate_Mode <= 8)
    87ca:	2c08      	cmp	r4, #8
    87cc:	d919      	bls.n	8802 <spi_init+0x1c6>
D:\app_for_qianrushi\exam\21\Debug/srcc/spi.c:120
        BaudRate_Low=0;
    87ce:	2500      	movs	r5, #0
    87d0:	e023      	b.n	881a <spi_init+0x1de>
D:\app_for_qianrushi\exam\21\Debug/srcc/spi.c:98 (discriminator 1)
        (MSTR==1)?BSET(SPI_C1_MSTR_SHIFT,SPI1_C1):\
    87d2:	001a      	movs	r2, r3
    87d4:	78db      	ldrb	r3, [r3, #3]
    87d6:	2110      	movs	r1, #16
    87d8:	430b      	orrs	r3, r1
    87da:	70d3      	strb	r3, [r2, #3]
    87dc:	e7d2      	b.n	8784 <spi_init+0x148>
D:\app_for_qianrushi\exam\21\Debug/srcc/spi.c:103 (discriminator 2)
        BSET(SPI_C1_CPOL_SHIFT,SPI1_C1);
    87de:	4a1b      	ldr	r2, [pc, #108]	; (884c <spi_init+0x210>)
    87e0:	78d3      	ldrb	r3, [r2, #3]
    87e2:	2108      	movs	r1, #8
    87e4:	430b      	orrs	r3, r1
    87e6:	70d3      	strb	r3, [r2, #3]
    87e8:	e7d3      	b.n	8792 <spi_init+0x156>
D:\app_for_qianrushi\exam\21\Debug/srcc/spi.c:108 (discriminator 2)
        BSET(SPI_C1_CPHA_SHIFT,SPI1_C1);
    87ea:	4a18      	ldr	r2, [pc, #96]	; (884c <spi_init+0x210>)
    87ec:	78d3      	ldrb	r3, [r2, #3]
    87ee:	2104      	movs	r1, #4
    87f0:	430b      	orrs	r3, r1
    87f2:	70d3      	strb	r3, [r2, #3]
    87f4:	e7d4      	b.n	87a0 <spi_init+0x164>
D:\app_for_qianrushi\exam\21\Debug/srcc/spi.c:116
        BSET(SPI_C2_MODFEN_SHIFT,SPI1_C2);
    87f6:	001a      	movs	r2, r3
    87f8:	789b      	ldrb	r3, [r3, #2]
    87fa:	2110      	movs	r1, #16
    87fc:	430b      	orrs	r3, r1
    87fe:	7093      	strb	r3, [r2, #2]
    8800:	e7d9      	b.n	87b6 <spi_init+0x17a>
D:\app_for_qianrushi\exam\21\Debug/srcc/spi.c:125
            SPI0_BR = (BaudRate_Mode - 1) << 4;
    8802:	3c01      	subs	r4, #1
    8804:	b2e3      	uxtb	r3, r4
    8806:	011b      	lsls	r3, r3, #4
    8808:	b2db      	uxtb	r3, r3
    880a:	4a0d      	ldr	r2, [pc, #52]	; (8840 <spi_init+0x204>)
    880c:	7053      	strb	r3, [r2, #1]
    880e:	e796      	b.n	873e <spi_init+0x102>
D:\app_for_qianrushi\exam\21\Debug/srcc/spi.c:131
                wdog_feed();
    8810:	f7ff ff08 	bl	8624 <wdog_feed>
D:\app_for_qianrushi\exam\21\Debug/srcc/spi.c:132
                BaudRate_Low++;
    8814:	3501      	adds	r5, #1
    8816:	b2ed      	uxtb	r5, r5
D:\app_for_qianrushi\exam\21\Debug/srcc/spi.c:133
                BaudRate_Mode=BaudRate_Mode/2;
    8818:	0864      	lsrs	r4, r4, #1
D:\app_for_qianrushi\exam\21\Debug/srcc/spi.c:129
            while(BaudRate_Mode / 2 > 8)
    881a:	2c11      	cmp	r4, #17
    881c:	d8f8      	bhi.n	8810 <spi_init+0x1d4>
D:\app_for_qianrushi\exam\21\Debug/srcc/spi.c:135
            BaudRate_High=--BaudRate_Mode;
    881e:	3c01      	subs	r4, #1
    8820:	b2e3      	uxtb	r3, r4
D:\app_for_qianrushi\exam\21\Debug/srcc/spi.c:136
            SPI0_BR=BaudRate_High<<4;//数值赋给SPI0_BR的SPPR的D6D5D4位
    8822:	011b      	lsls	r3, r3, #4
    8824:	b2db      	uxtb	r3, r3
    8826:	4a06      	ldr	r2, [pc, #24]	; (8840 <spi_init+0x204>)
    8828:	7053      	strb	r3, [r2, #1]
D:\app_for_qianrushi\exam\21\Debug/srcc/spi.c:137
            SPI0_BR|=BaudRate_Low;//赋值给SPI0_BR的SPR的 D2D1D0位
    882a:	7853      	ldrb	r3, [r2, #1]
    882c:	431d      	orrs	r5, r3
    882e:	7055      	strb	r5, [r2, #1]
D:\app_for_qianrushi\exam\21\Debug/srcc/spi.c:140
}
    8830:	e785      	b.n	873e <spi_init+0x102>
    8832:	46c0      	nop			; (mov r8, r8)
    8834:	40047000 	.word	0x40047000
    8838:	00001034 	.word	0x00001034
    883c:	4004b000 	.word	0x4004b000
    8840:	40076000 	.word	0x40076000
    8844:	00005dc0 	.word	0x00005dc0
    8848:	4004c000 	.word	0x4004c000
    884c:	40077000 	.word	0x40077000

00008850 <spi_send1>:
spi_send1():
D:\app_for_qianrushi\exam\21\Debug/srcc/spi.c:152
//函数返回：0：发送失败；1：发送成功。
//=====================================================================
uint8_t spi_send1(uint8_t No,uint8_t data)
{
    uint32_t i;
    SPI_MemMapPtr baseadd=SPI_baseadd(No);
    8850:	4b0a      	ldr	r3, [pc, #40]	; (887c <spi_send1+0x2c>)
    8852:	469c      	mov	ip, r3
    8854:	4460      	add	r0, ip
    8856:	0300      	lsls	r0, r0, #12
D:\app_for_qianrushi\exam\21\Debug/srcc/spi.c:153 (discriminator 1)
    while(!(SPI_S_REG(baseadd)&SPI_S_SPTEF_MASK));//等待发送缓冲区空闲
    8858:	7803      	ldrb	r3, [r0, #0]
    885a:	069b      	lsls	r3, r3, #26
    885c:	d5fc      	bpl.n	8858 <spi_send1+0x8>
D:\app_for_qianrushi\exam\21\Debug/srcc/spi.c:154
    SPI_DL_REG(baseadd)=data;//数据寄存器接收数据
    885e:	7181      	strb	r1, [r0, #6]
D:\app_for_qianrushi\exam\21\Debug/srcc/spi.c:155
    for(i=0;i<0xFFF0;i++)        //在一定时间内发送不能完成，则认为发送失败。
    8860:	2300      	movs	r3, #0
D:\app_for_qianrushi\exam\21\Debug/srcc/spi.c:155 (discriminator 1)
    8862:	4a07      	ldr	r2, [pc, #28]	; (8880 <spi_send1+0x30>)
    8864:	4293      	cmp	r3, r2
    8866:	d804      	bhi.n	8872 <spi_send1+0x22>
D:\app_for_qianrushi\exam\21\Debug/srcc/spi.c:157
    {
        if(SPI_S_REG(baseadd)&SPI_S_SPTEF_MASK)//判断发送缓冲区是否接到数据
    8868:	7802      	ldrb	r2, [r0, #0]
    886a:	0692      	lsls	r2, r2, #26
    886c:	d403      	bmi.n	8876 <spi_send1+0x26>
D:\app_for_qianrushi\exam\21\Debug/srcc/spi.c:155 (discriminator 2)
    for(i=0;i<0xFFF0;i++)        //在一定时间内发送不能完成，则认为发送失败。
    886e:	3301      	adds	r3, #1
    8870:	e7f7      	b.n	8862 <spi_send1+0x12>
D:\app_for_qianrushi\exam\21\Debug/srcc/spi.c:162
        {
            return(1);
        }
    }
    return(0);
    8872:	2000      	movs	r0, #0
    8874:	e000      	b.n	8878 <spi_send1+0x28>
D:\app_for_qianrushi\exam\21\Debug/srcc/spi.c:159
            return(1);
    8876:	2001      	movs	r0, #1
D:\app_for_qianrushi\exam\21\Debug/srcc/spi.c:163
}
    8878:	4770      	bx	lr
    887a:	46c0      	nop			; (mov r8, r8)
    887c:	00040076 	.word	0x00040076
    8880:	0000ffef 	.word	0x0000ffef

00008884 <Vectors_Init>:
Vectors_Init():
D:\app_for_qianrushi\exam\21\Debug/srcc/gec.c:15
//参数说明：无
//功能概要：User对BIOS中断向量表的部分继承,构件库函数指针初始化
//修改信息：WYH，20200805，规范
//======================================================================
void  Vectors_Init()
{
    8884:	b580      	push	{r7, lr}
    8886:	4f1d      	ldr	r7, [pc, #116]	; (88fc <Vectors_Init+0x78>)
    8888:	44bd      	add	sp, r7
D:\app_for_qianrushi\exam\21\Debug/srcc/gec.c:19
    //有用户程序，编译本段代码
    #if (GEC_USER_SECTOR_START!=0)   
    //（1）若Flash倒数2扇区的前24字节为空，则写入设备序列号及软件版本号初值
    if(flash_isempty(MCU_SECTOR_NUM-1,24))
    888a:	2118      	movs	r1, #24
    888c:	203f      	movs	r0, #63	; 0x3f
    888e:	f7ff fd8d 	bl	83ac <flash_isempty>
    8892:	2800      	cmp	r0, #0
    8894:	d12b      	bne.n	88ee <Vectors_Init+0x6a>
D:\app_for_qianrushi\exam\21\Debug/srcc/gec.c:28
    }
    //（2）继承BIOS的串口中断              
    void ** bios=MCU_FLASH_ADDR_START;   //向量表起始地址  
    uint32_t user[MCU_SECTORSIZE/4];     //向量表变量数组
    //读取USER中断向量表各中断处理程序地址赋给user数组
    flash_read_physical((uint8_t *)user,GEC_USER_SECTOR_START*
    8896:	2280      	movs	r2, #128	; 0x80
    8898:	21d0      	movs	r1, #208	; 0xd0
    889a:	00d2      	lsls	r2, r2, #3
    889c:	01c9      	lsls	r1, r1, #7
    889e:	a802      	add	r0, sp, #8
    88a0:	f7ff fd80 	bl	83a4 <flash_read_physical>
D:\app_for_qianrushi\exam\21\Debug/srcc/gec.c:32
    MCU_SECTORSIZE+MCU_FLASH_ADDR_START,MCU_SECTORSIZE);
    //判断USER中串口更新中断是否为BIOS对应中断地址。若是，则不作操作；否则修改
    //为BIOS对应中断地址
    if(user[BIOS_UART_UPDATE_IRQn] != (uint32_t)bios[BIOS_UART_UPDATE_IRQn])
    88a4:	2378      	movs	r3, #120	; 0x78
    88a6:	681b      	ldr	r3, [r3, #0]
    88a8:	9a20      	ldr	r2, [sp, #128]	; 0x80
    88aa:	429a      	cmp	r2, r3
    88ac:	d010      	beq.n	88d0 <Vectors_Init+0x4c>
D:\app_for_qianrushi\exam\21\Debug/srcc/gec.c:35
    {
        //改变User中断向量表中BIOS_UART中断向量
        flash_erase(GEC_USER_SECTOR_START);
    88ae:	201a      	movs	r0, #26
    88b0:	f7ff fdae 	bl	8410 <flash_erase>
D:\app_for_qianrushi\exam\21\Debug/srcc/gec.c:37
        //改USER中断向量表的BIOS程序写入串口的中断处理程序地址
        user[2]=(uint32_t)bios[2];     //【20200903】
    88b4:	2308      	movs	r3, #8
    88b6:	681b      	ldr	r3, [r3, #0]
    88b8:	9304      	str	r3, [sp, #16]
D:\app_for_qianrushi\exam\21\Debug/srcc/gec.c:38
        user[BIOS_UART_UPDATE_IRQn]=(uint32_t)bios[BIOS_UART_UPDATE_IRQn];
    88ba:	2378      	movs	r3, #120	; 0x78
    88bc:	681b      	ldr	r3, [r3, #0]
    88be:	9301      	str	r3, [sp, #4]
    88c0:	9320      	str	r3, [sp, #128]	; 0x80
D:\app_for_qianrushi\exam\21\Debug/srcc/gec.c:39
        flash_write_physical(GEC_USER_SECTOR_START*MCU_SECTORSIZE+
    88c2:	2180      	movs	r1, #128	; 0x80
    88c4:	20d0      	movs	r0, #208	; 0xd0
    88c6:	aa02      	add	r2, sp, #8
    88c8:	00c9      	lsls	r1, r1, #3
    88ca:	01c0      	lsls	r0, r0, #7
    88cc:	f7ff fdd4 	bl	8478 <flash_write_physical>
D:\app_for_qianrushi\exam\21\Debug/srcc/gec.c:44
        MCU_FLASH_ADDR_START,MCU_SECTORSIZE,(uint8_t *)user);
    }
    
    //（3）中断向量表指针重定向到USER程序的中断向量表
    SCB->VTOR = (uint32_t)(GEC_USER_SECTOR_START*MCU_SECTORSIZE+
    88d0:	4b0b      	ldr	r3, [pc, #44]	; (8900 <Vectors_Init+0x7c>)
    88d2:	22d0      	movs	r2, #208	; 0xd0
    88d4:	01d2      	lsls	r2, r2, #7
    88d6:	609a      	str	r2, [r3, #8]
D:\app_for_qianrushi\exam\21\Debug/srcc/gec.c:47
    MCU_FLASH_ADDR_START);  
    //（4）给component_fun赋值，SYSTEM_FUNCTION函数用
    component_fun=(void **)(MCU_FLASH_ADDR_START+
    88d8:	4b0a      	ldr	r3, [pc, #40]	; (8904 <Vectors_Init+0x80>)
    88da:	22e0      	movs	r2, #224	; 0xe0
    88dc:	0192      	lsls	r2, r2, #6
    88de:	601a      	str	r2, [r3, #0]
D:\app_for_qianrushi\exam\21\Debug/srcc/gec.c:50
    GEC_COMPONENT_LST_START*MCU_SECTORSIZE); 
    //（5）printf提示             
    printf("  【User提示】：将进入User的main()执行...\r\n");
    88e0:	4809      	ldr	r0, [pc, #36]	; (8908 <Vectors_Init+0x84>)
    88e2:	f000 ffb1 	bl	9848 <myprintf>
D:\app_for_qianrushi\exam\21\Debug/srcc/gec.c:53
    
    #endif
}
    88e6:	2381      	movs	r3, #129	; 0x81
    88e8:	00db      	lsls	r3, r3, #3
    88ea:	449d      	add	sp, r3
    88ec:	bd80      	pop	{r7, pc}
D:\app_for_qianrushi\exam\21\Debug/srcc/gec.c:21
        flash_write_physical((MCU_SECTOR_NUM-1)*MCU_SECTORSIZE+
    88ee:	20fc      	movs	r0, #252	; 0xfc
    88f0:	4a06      	ldr	r2, [pc, #24]	; (890c <Vectors_Init+0x88>)
    88f2:	2118      	movs	r1, #24
    88f4:	0200      	lsls	r0, r0, #8
    88f6:	f7ff fdbf 	bl	8478 <flash_write_physical>
    88fa:	e7cc      	b.n	8896 <Vectors_Init+0x12>
    88fc:	fffffbf8 	.word	0xfffffbf8
    8900:	e000ed00 	.word	0xe000ed00
    8904:	20000420 	.word	0x20000420
    8908:	00009974 	.word	0x00009974
    890c:	00009958 	.word	0x00009958

00008910 <uart_is_uartNo>:
uart_is_uartNo():
D:\app_for_qianrushi\exam\21\Debug/srcc/uart.c:539
//参数说明：串口号uartNo  :UART_0、UART_1、UART_2
//功能概要：为程序健壮性而判断uartNo是否在串口数字范围内
//=====================================================================
uint8_t uart_is_uartNo(uint8_t uartNo)
{
    if(uartNo < UART_0 || uartNo > UART_2)
    8910:	2802      	cmp	r0, #2
    8912:	d801      	bhi.n	8918 <uart_is_uartNo+0x8>
D:\app_for_qianrushi\exam\21\Debug/srcc/uart.c:542
        return 0;
    else
        return 1;
    8914:	2001      	movs	r0, #1
D:\app_for_qianrushi\exam\21\Debug/srcc/uart.c:543
}
    8916:	4770      	bx	lr
D:\app_for_qianrushi\exam\21\Debug/srcc/uart.c:540
        return 0;
    8918:	2000      	movs	r0, #0
    891a:	e7fc      	b.n	8916 <uart_is_uartNo+0x6>

0000891c <uart_send1>:
uart_send1():
D:\app_for_qianrushi\exam\21\Debug/srcc/uart.c:173
{
    891c:	b570      	push	{r4, r5, r6, lr}
    891e:	0005      	movs	r5, r0
    8920:	000c      	movs	r4, r1
D:\app_for_qianrushi\exam\21\Debug/srcc/uart.c:177
    UART_MemMapPtr UART_2h_1_2 = UART_ARR[uartNo-1]; //获取UART1或者2基地址
    8922:	1e43      	subs	r3, r0, #1
    8924:	009b      	lsls	r3, r3, #2
    8926:	4a11      	ldr	r2, [pc, #68]	; (896c <uart_send1+0x50>)
    8928:	589e      	ldr	r6, [r3, r2]
D:\app_for_qianrushi\exam\21\Debug/srcc/uart.c:185
    if(!uart_is_uartNo(uartNo))
    892a:	f7ff fff1 	bl	8910 <uart_is_uartNo>
    892e:	2800      	cmp	r0, #0
    8930:	d016      	beq.n	8960 <uart_send1+0x44>
D:\app_for_qianrushi\exam\21\Debug/srcc/uart.c:190
    for (t = 0; t < 0xFBBB; t++)//查询指定次数
    8932:	2300      	movs	r3, #0
    8934:	e004      	b.n	8940 <uart_send1+0x24>
D:\app_for_qianrushi\exam\21\Debug/srcc/uart.c:204
            if (UART_S1_REG(UART_2h_1_2) & UART_S1_TDRE_MASK )
    8936:	7932      	ldrb	r2, [r6, #4]
    8938:	b252      	sxtb	r2, r2
    893a:	2a00      	cmp	r2, #0
    893c:	db11      	blt.n	8962 <uart_send1+0x46>
D:\app_for_qianrushi\exam\21\Debug/srcc/uart.c:190 (discriminator 2)
    for (t = 0; t < 0xFBBB; t++)//查询指定次数
    893e:	3301      	adds	r3, #1
D:\app_for_qianrushi\exam\21\Debug/srcc/uart.c:190 (discriminator 1)
    8940:	4a0b      	ldr	r2, [pc, #44]	; (8970 <uart_send1+0x54>)
    8942:	4293      	cmp	r3, r2
    8944:	d808      	bhi.n	8958 <uart_send1+0x3c>
D:\app_for_qianrushi\exam\21\Debug/srcc/uart.c:192
        if(0==uartNo)     //判断使用的哪个串口
    8946:	2d00      	cmp	r5, #0
    8948:	d1f5      	bne.n	8936 <uart_send1+0x1a>
D:\app_for_qianrushi\exam\21\Debug/srcc/uart.c:195
            if ( UART0_S1_REG(UART_2h_0) & UART0_S1_TDRE_MASK )
    894a:	4a0a      	ldr	r2, [pc, #40]	; (8974 <uart_send1+0x58>)
    894c:	7912      	ldrb	r2, [r2, #4]
    894e:	b252      	sxtb	r2, r2
    8950:	2a00      	cmp	r2, #0
    8952:	daf4      	bge.n	893e <uart_send1+0x22>
D:\app_for_qianrushi\exam\21\Debug/srcc/uart.c:197
                UART0_D_REG(UART_2h_0) = ch;
    8954:	4a07      	ldr	r2, [pc, #28]	; (8974 <uart_send1+0x58>)
    8956:	71d4      	strb	r4, [r2, #7]
D:\app_for_qianrushi\exam\21\Debug/srcc/uart.c:217
    if (t >= 0xFBBB)
    8958:	4a05      	ldr	r2, [pc, #20]	; (8970 <uart_send1+0x54>)
    895a:	4293      	cmp	r3, r2
    895c:	d803      	bhi.n	8966 <uart_send1+0x4a>
D:\app_for_qianrushi\exam\21\Debug/srcc/uart.c:220
        return 1; //成功发送
    895e:	2001      	movs	r0, #1
D:\app_for_qianrushi\exam\21\Debug/srcc/uart.c:221
}
    8960:	bd70      	pop	{r4, r5, r6, pc}
D:\app_for_qianrushi\exam\21\Debug/srcc/uart.c:206
                UART_D_REG(UART_2h_1_2) = ch;
    8962:	71f4      	strb	r4, [r6, #7]
D:\app_for_qianrushi\exam\21\Debug/srcc/uart.c:207
                break;
    8964:	e7f8      	b.n	8958 <uart_send1+0x3c>
D:\app_for_qianrushi\exam\21\Debug/srcc/uart.c:218
        return 0; //发送超时，发送失败
    8966:	2000      	movs	r0, #0
    8968:	e7fa      	b.n	8960 <uart_send1+0x44>
    896a:	46c0      	nop			; (mov r8, r8)
    896c:	000099a0 	.word	0x000099a0
    8970:	0000fbba 	.word	0x0000fbba
    8974:	4006a000 	.word	0x4006a000

00008978 <uart_re1>:
uart_re1():
D:\app_for_qianrushi\exam\21\Debug/srcc/uart.c:285
{
    8978:	b570      	push	{r4, r5, r6, lr}
    897a:	0004      	movs	r4, r0
    897c:	000e      	movs	r6, r1
D:\app_for_qianrushi\exam\21\Debug/srcc/uart.c:289
    UART_MemMapPtr UART_2h_1_2 = UART_ARR[uartNo-1]; //获取UART1或者2基地址
    897e:	1e43      	subs	r3, r0, #1
    8980:	009b      	lsls	r3, r3, #2
    8982:	4a14      	ldr	r2, [pc, #80]	; (89d4 <uart_re1+0x5c>)
    8984:	589d      	ldr	r5, [r3, r2]
D:\app_for_qianrushi\exam\21\Debug/srcc/uart.c:292
    if(!uart_is_uartNo(uartNo))
    8986:	f7ff ffc3 	bl	8910 <uart_is_uartNo>
    898a:	2800      	cmp	r0, #0
    898c:	d001      	beq.n	8992 <uart_re1+0x1a>
D:\app_for_qianrushi\exam\21\Debug/srcc/uart.c:298
    for (t = 0; t < 0xFBBB; t++)//查询指定次数
    898e:	2300      	movs	r3, #0
    8990:	e006      	b.n	89a0 <uart_re1+0x28>
D:\app_for_qianrushi\exam\21\Debug/srcc/uart.c:294
        *fp=0;
    8992:	2300      	movs	r3, #0
    8994:	7033      	strb	r3, [r6, #0]
D:\app_for_qianrushi\exam\21\Debug/srcc/uart.c:327
}
    8996:	bd70      	pop	{r4, r5, r6, pc}
D:\app_for_qianrushi\exam\21\Debug/srcc/uart.c:313
            if(UART_S1_REG(UART_2h_1_2) & UART_S1_RDRF_MASK)
    8998:	792a      	ldrb	r2, [r5, #4]
    899a:	0692      	lsls	r2, r2, #26
    899c:	d415      	bmi.n	89ca <uart_re1+0x52>
D:\app_for_qianrushi\exam\21\Debug/srcc/uart.c:298 (discriminator 2)
    for (t = 0; t < 0xFBBB; t++)//查询指定次数
    899e:	3301      	adds	r3, #1
D:\app_for_qianrushi\exam\21\Debug/srcc/uart.c:298 (discriminator 1)
    89a0:	4a0d      	ldr	r2, [pc, #52]	; (89d8 <uart_re1+0x60>)
    89a2:	4293      	cmp	r3, r2
    89a4:	d80a      	bhi.n	89bc <uart_re1+0x44>
D:\app_for_qianrushi\exam\21\Debug/srcc/uart.c:300
        if(0==uartNo)  //判断使用的哪个串口
    89a6:	2c00      	cmp	r4, #0
    89a8:	d1f6      	bne.n	8998 <uart_re1+0x20>
D:\app_for_qianrushi\exam\21\Debug/srcc/uart.c:303
        if (UART0_S1_REG(UART_2h_0) & UART0_S1_RDRF_MASK)
    89aa:	4a0c      	ldr	r2, [pc, #48]	; (89dc <uart_re1+0x64>)
    89ac:	7912      	ldrb	r2, [r2, #4]
    89ae:	0692      	lsls	r2, r2, #26
    89b0:	d5f5      	bpl.n	899e <uart_re1+0x26>
D:\app_for_qianrushi\exam\21\Debug/srcc/uart.c:305
                dat=UART0_D_REG(UART_2h_0);    //获取数据,清接收中断位
    89b2:	4a0a      	ldr	r2, [pc, #40]	; (89dc <uart_re1+0x64>)
    89b4:	79d0      	ldrb	r0, [r2, #7]
    89b6:	b2c0      	uxtb	r0, r0
D:\app_for_qianrushi\exam\21\Debug/srcc/uart.c:306
                *fp = 1;  //接收成功
    89b8:	2201      	movs	r2, #1
    89ba:	7032      	strb	r2, [r6, #0]
D:\app_for_qianrushi\exam\21\Debug/srcc/uart.c:321
    if(t >= 0xFBBB) 
    89bc:	4a06      	ldr	r2, [pc, #24]	; (89d8 <uart_re1+0x60>)
    89be:	4293      	cmp	r3, r2
    89c0:	d9e9      	bls.n	8996 <uart_re1+0x1e>
D:\app_for_qianrushi\exam\21\Debug/srcc/uart.c:324
        *fp = 0;    //未收到数据
    89c2:	2300      	movs	r3, #0
    89c4:	7033      	strb	r3, [r6, #0]
D:\app_for_qianrushi\exam\21\Debug/srcc/uart.c:323
        dat = 0xFF; 
    89c6:	20ff      	movs	r0, #255	; 0xff
    89c8:	e7e5      	b.n	8996 <uart_re1+0x1e>
D:\app_for_qianrushi\exam\21\Debug/srcc/uart.c:315
                dat=UART_D_REG(UART_2h_1_2);    //获取数据,清接收中断位
    89ca:	79e8      	ldrb	r0, [r5, #7]
    89cc:	b2c0      	uxtb	r0, r0
D:\app_for_qianrushi\exam\21\Debug/srcc/uart.c:316
                *fp= 1;  //接收成功
    89ce:	2201      	movs	r2, #1
    89d0:	7032      	strb	r2, [r6, #0]
D:\app_for_qianrushi\exam\21\Debug/srcc/uart.c:317
                break;
    89d2:	e7f3      	b.n	89bc <uart_re1+0x44>
    89d4:	000099a0 	.word	0x000099a0
    89d8:	0000fbba 	.word	0x0000fbba
    89dc:	4006a000 	.word	0x4006a000

000089e0 <LCD_WR_DATA8>:
LCD_WR_DATA8():
D:\app_for_qianrushi\exam\21\Debug/srcc/lcd.c:415
    result=1;
    while(n--) result*=m;
    return result;
}
void LCD_WR_DATA8(uint8_t da) //发送数据-8位参数
{
    89e0:	b570      	push	{r4, r5, r6, lr}
    89e2:	0005      	movs	r5, r0
D:\app_for_qianrushi\exam\21\Debug/srcc/lcd.c:416
     wdog_feed();
    89e4:	f7ff fe1e 	bl	8624 <wdog_feed>
D:\app_for_qianrushi\exam\21\Debug/srcc/lcd.c:417
    gpio_set(LCD_DC,1);
    89e8:	2101      	movs	r1, #1
    89ea:	4809      	ldr	r0, [pc, #36]	; (8a10 <LCD_WR_DATA8+0x30>)
    89ec:	f7ff fd72 	bl	84d4 <gpio_set>
D:\app_for_qianrushi\exam\21\Debug/srcc/lcd.c:418
    gpio_set(LCD_CS,0);
    89f0:	24c0      	movs	r4, #192	; 0xc0
    89f2:	00a4      	lsls	r4, r4, #2
    89f4:	2100      	movs	r1, #0
    89f6:	0020      	movs	r0, r4
    89f8:	f7ff fd6c 	bl	84d4 <gpio_set>
D:\app_for_qianrushi\exam\21\Debug/srcc/lcd.c:420
    //	gpio_init(LCD_CS,1,0);
    spi_send1(LCD_SPI,da);
    89fc:	0029      	movs	r1, r5
    89fe:	2000      	movs	r0, #0
    8a00:	f7ff ff26 	bl	8850 <spi_send1>
D:\app_for_qianrushi\exam\21\Debug/srcc/lcd.c:421
    gpio_set(LCD_CS,1);
    8a04:	2101      	movs	r1, #1
    8a06:	0020      	movs	r0, r4
    8a08:	f7ff fd64 	bl	84d4 <gpio_set>
D:\app_for_qianrushi\exam\21\Debug/srcc/lcd.c:423
    //	gpio_init(LCD_CS,1,1);
}
    8a0c:	bd70      	pop	{r4, r5, r6, pc}
    8a0e:	46c0      	nop			; (mov r8, r8)
    8a10:	00000301 	.word	0x00000301

00008a14 <LCD_WR_DATA>:
LCD_WR_DATA():
D:\app_for_qianrushi\exam\21\Debug/srcc/lcd.c:425
void LCD_WR_DATA(uint16_t da)
{
    8a14:	b570      	push	{r4, r5, r6, lr}
    8a16:	0004      	movs	r4, r0
D:\app_for_qianrushi\exam\21\Debug/srcc/lcd.c:426
     wdog_feed();
    8a18:	f7ff fe04 	bl	8624 <wdog_feed>
D:\app_for_qianrushi\exam\21\Debug/srcc/lcd.c:427
    gpio_set(LCD_DC,1);
    8a1c:	2101      	movs	r1, #1
    8a1e:	480b      	ldr	r0, [pc, #44]	; (8a4c <LCD_WR_DATA+0x38>)
    8a20:	f7ff fd58 	bl	84d4 <gpio_set>
D:\app_for_qianrushi\exam\21\Debug/srcc/lcd.c:428
    gpio_set(LCD_CS,0);
    8a24:	25c0      	movs	r5, #192	; 0xc0
    8a26:	00ad      	lsls	r5, r5, #2
    8a28:	2100      	movs	r1, #0
    8a2a:	0028      	movs	r0, r5
    8a2c:	f7ff fd52 	bl	84d4 <gpio_set>
D:\app_for_qianrushi\exam\21\Debug/srcc/lcd.c:430
    //	gpio_init(LCD_CS,1,0);
    spi_send1(LCD_SPI,da>>8);
    8a30:	0a21      	lsrs	r1, r4, #8
    8a32:	2000      	movs	r0, #0
    8a34:	f7ff ff0c 	bl	8850 <spi_send1>
D:\app_for_qianrushi\exam\21\Debug/srcc/lcd.c:431
    spi_send1(LCD_SPI,da);
    8a38:	b2e1      	uxtb	r1, r4
    8a3a:	2000      	movs	r0, #0
    8a3c:	f7ff ff08 	bl	8850 <spi_send1>
D:\app_for_qianrushi\exam\21\Debug/srcc/lcd.c:432
    gpio_set(LCD_CS,1);
    8a40:	2101      	movs	r1, #1
    8a42:	0028      	movs	r0, r5
    8a44:	f7ff fd46 	bl	84d4 <gpio_set>
D:\app_for_qianrushi\exam\21\Debug/srcc/lcd.c:434
    //    gpio_init(LCD_CS,1,1);
}
    8a48:	bd70      	pop	{r4, r5, r6, pc}
    8a4a:	46c0      	nop			; (mov r8, r8)
    8a4c:	00000301 	.word	0x00000301

00008a50 <LCD_WR_REG>:
LCD_WR_REG():
D:\app_for_qianrushi\exam\21\Debug/srcc/lcd.c:436
void LCD_WR_REG(uint8_t da)
{
    8a50:	b570      	push	{r4, r5, r6, lr}
    8a52:	0005      	movs	r5, r0
D:\app_for_qianrushi\exam\21\Debug/srcc/lcd.c:437
     wdog_feed();
    8a54:	f7ff fde6 	bl	8624 <wdog_feed>
D:\app_for_qianrushi\exam\21\Debug/srcc/lcd.c:438
    gpio_set(LCD_DC,0);
    8a58:	2100      	movs	r1, #0
    8a5a:	4809      	ldr	r0, [pc, #36]	; (8a80 <LCD_WR_REG+0x30>)
    8a5c:	f7ff fd3a 	bl	84d4 <gpio_set>
D:\app_for_qianrushi\exam\21\Debug/srcc/lcd.c:439
    gpio_set(LCD_CS,0);
    8a60:	24c0      	movs	r4, #192	; 0xc0
    8a62:	00a4      	lsls	r4, r4, #2
    8a64:	2100      	movs	r1, #0
    8a66:	0020      	movs	r0, r4
    8a68:	f7ff fd34 	bl	84d4 <gpio_set>
D:\app_for_qianrushi\exam\21\Debug/srcc/lcd.c:441
    //	gpio_init(LCD_CS,1,0);
    spi_send1(LCD_SPI,da);
    8a6c:	0029      	movs	r1, r5
    8a6e:	2000      	movs	r0, #0
    8a70:	f7ff feee 	bl	8850 <spi_send1>
D:\app_for_qianrushi\exam\21\Debug/srcc/lcd.c:443
    //	gpio_init(LCD_CS,1,1);
    gpio_set(LCD_CS,1);
    8a74:	2101      	movs	r1, #1
    8a76:	0020      	movs	r0, r4
    8a78:	f7ff fd2c 	bl	84d4 <gpio_set>
D:\app_for_qianrushi\exam\21\Debug/srcc/lcd.c:444
}
    8a7c:	bd70      	pop	{r4, r5, r6, pc}
    8a7e:	46c0      	nop			; (mov r8, r8)
    8a80:	00000301 	.word	0x00000301

00008a84 <LCD_WR_REG_DATA>:
LCD_WR_REG_DATA():
D:\app_for_qianrushi\exam\21\Debug/srcc/lcd.c:447
//void LCD_WR_REG_DATA(uint16_t reg,uint16_t da)
void LCD_WR_REG_DATA(uint8_t reg,uint16_t da)
{
    8a84:	b510      	push	{r4, lr}
    8a86:	000c      	movs	r4, r1
D:\app_for_qianrushi\exam\21\Debug/srcc/lcd.c:448
    LCD_WR_REG(reg);
    8a88:	f7ff ffe2 	bl	8a50 <LCD_WR_REG>
D:\app_for_qianrushi\exam\21\Debug/srcc/lcd.c:449
    LCD_WR_DATA(da);
    8a8c:	0020      	movs	r0, r4
    8a8e:	f7ff ffc1 	bl	8a14 <LCD_WR_DATA>
D:\app_for_qianrushi\exam\21\Debug/srcc/lcd.c:450
}
    8a92:	bd10      	pop	{r4, pc}

00008a94 <Address_set>:
Address_set():
D:\app_for_qianrushi\exam\21\Debug/srcc/lcd.c:452
void Address_set(uint16_t x1,uint16_t y1,uint16_t x2,uint16_t y2)
{
    8a94:	b5f8      	push	{r3, r4, r5, r6, r7, lr}
    8a96:	0007      	movs	r7, r0
    8a98:	000d      	movs	r5, r1
    8a9a:	0016      	movs	r6, r2
    8a9c:	001c      	movs	r4, r3
D:\app_for_qianrushi\exam\21\Debug/srcc/lcd.c:453
    LCD_WR_REG(0x2a);      //写行地址命令
    8a9e:	202a      	movs	r0, #42	; 0x2a
    8aa0:	f7ff ffd6 	bl	8a50 <LCD_WR_REG>
D:\app_for_qianrushi\exam\21\Debug/srcc/lcd.c:454
    LCD_WR_DATA8(x1>>8);   //写起始行地址
    8aa4:	0a38      	lsrs	r0, r7, #8
    8aa6:	f7ff ff9b 	bl	89e0 <LCD_WR_DATA8>
D:\app_for_qianrushi\exam\21\Debug/srcc/lcd.c:455
    LCD_WR_DATA8(x1);
    8aaa:	b2f8      	uxtb	r0, r7
    8aac:	f7ff ff98 	bl	89e0 <LCD_WR_DATA8>
D:\app_for_qianrushi\exam\21\Debug/srcc/lcd.c:456
    LCD_WR_DATA8(x2>>8);   //写结束行地址
    8ab0:	0a30      	lsrs	r0, r6, #8
    8ab2:	f7ff ff95 	bl	89e0 <LCD_WR_DATA8>
D:\app_for_qianrushi\exam\21\Debug/srcc/lcd.c:457
    LCD_WR_DATA8(x2);
    8ab6:	b2f0      	uxtb	r0, r6
    8ab8:	f7ff ff92 	bl	89e0 <LCD_WR_DATA8>
D:\app_for_qianrushi\exam\21\Debug/srcc/lcd.c:459
    
    LCD_WR_REG(0x2b);     //写列地址命令
    8abc:	202b      	movs	r0, #43	; 0x2b
    8abe:	f7ff ffc7 	bl	8a50 <LCD_WR_REG>
D:\app_for_qianrushi\exam\21\Debug/srcc/lcd.c:460
    LCD_WR_DATA8(y1>>8);  //写列起始地址
    8ac2:	0a28      	lsrs	r0, r5, #8
    8ac4:	f7ff ff8c 	bl	89e0 <LCD_WR_DATA8>
D:\app_for_qianrushi\exam\21\Debug/srcc/lcd.c:461
    LCD_WR_DATA8(y1);
    8ac8:	b2e8      	uxtb	r0, r5
    8aca:	f7ff ff89 	bl	89e0 <LCD_WR_DATA8>
D:\app_for_qianrushi\exam\21\Debug/srcc/lcd.c:462
    LCD_WR_DATA8(y2>>8);  //写结束列地址
    8ace:	0a20      	lsrs	r0, r4, #8
    8ad0:	f7ff ff86 	bl	89e0 <LCD_WR_DATA8>
D:\app_for_qianrushi\exam\21\Debug/srcc/lcd.c:463
    LCD_WR_DATA8(y2);
    8ad4:	b2e0      	uxtb	r0, r4
    8ad6:	f7ff ff83 	bl	89e0 <LCD_WR_DATA8>
D:\app_for_qianrushi\exam\21\Debug/srcc/lcd.c:465
    
    LCD_WR_REG(0x2C);     //写存储器命令
    8ada:	202c      	movs	r0, #44	; 0x2c
    8adc:	f7ff ffb8 	bl	8a50 <LCD_WR_REG>
D:\app_for_qianrushi\exam\21\Debug/srcc/lcd.c:466
}
    8ae0:	bdf8      	pop	{r3, r4, r5, r6, r7, pc}

00008ae2 <LCD_Clear>:
LCD_Clear():
D:\app_for_qianrushi\exam\21\Debug/srcc/lcd.c:67
{
    8ae2:	b570      	push	{r4, r5, r6, lr}
    8ae4:	0005      	movs	r5, r0
D:\app_for_qianrushi\exam\21\Debug/srcc/lcd.c:69
    Address_set(0,0,LCD_W-1,LCD_H-1);
    8ae6:	2340      	movs	r3, #64	; 0x40
    8ae8:	33ff      	adds	r3, #255	; 0xff
    8aea:	22ef      	movs	r2, #239	; 0xef
    8aec:	2100      	movs	r1, #0
    8aee:	2000      	movs	r0, #0
    8af0:	f7ff ffd0 	bl	8a94 <Address_set>
D:\app_for_qianrushi\exam\21\Debug/srcc/lcd.c:70
    for(i=0;i<LCD_W;i++)
    8af4:	2600      	movs	r6, #0
    8af6:	e00a      	b.n	8b0e <LCD_Clear+0x2c>
D:\app_for_qianrushi\exam\21\Debug/srcc/lcd.c:72 (discriminator 3)
        for (j=0;j<LCD_H;j++) LCD_WR_DATA(background);
    8af8:	0028      	movs	r0, r5
    8afa:	f7ff ff8b 	bl	8a14 <LCD_WR_DATA>
    8afe:	3401      	adds	r4, #1
    8b00:	b2a4      	uxth	r4, r4
D:\app_for_qianrushi\exam\21\Debug/srcc/lcd.c:72 (discriminator 1)
    8b02:	2340      	movs	r3, #64	; 0x40
    8b04:	33ff      	adds	r3, #255	; 0xff
    8b06:	429c      	cmp	r4, r3
    8b08:	d9f6      	bls.n	8af8 <LCD_Clear+0x16>
D:\app_for_qianrushi\exam\21\Debug/srcc/lcd.c:70 (discriminator 2)
    for(i=0;i<LCD_W;i++)
    8b0a:	3601      	adds	r6, #1
    8b0c:	b2b6      	uxth	r6, r6
D:\app_for_qianrushi\exam\21\Debug/srcc/lcd.c:70 (discriminator 1)
    8b0e:	2eef      	cmp	r6, #239	; 0xef
    8b10:	d801      	bhi.n	8b16 <LCD_Clear+0x34>
D:\app_for_qianrushi\exam\21\Debug/srcc/lcd.c:72
        for (j=0;j<LCD_H;j++) LCD_WR_DATA(background);
    8b12:	2400      	movs	r4, #0
    8b14:	e7f5      	b.n	8b02 <LCD_Clear+0x20>
D:\app_for_qianrushi\exam\21\Debug/srcc/lcd.c:74
}
    8b16:	bd70      	pop	{r4, r5, r6, pc}

00008b18 <LCD_DrawPoint>:
LCD_DrawPoint():
D:\app_for_qianrushi\exam\21\Debug/srcc/lcd.c:85
{
    8b18:	b510      	push	{r4, lr}
    8b1a:	0014      	movs	r4, r2
D:\app_for_qianrushi\exam\21\Debug/srcc/lcd.c:86
    Address_set(x,y,x,y);//设置光标位置
    8b1c:	000b      	movs	r3, r1
    8b1e:	0002      	movs	r2, r0
    8b20:	f7ff ffb8 	bl	8a94 <Address_set>
D:\app_for_qianrushi\exam\21\Debug/srcc/lcd.c:87
    LCD_WR_DATA(color);
    8b24:	0020      	movs	r0, r4
    8b26:	f7ff ff75 	bl	8a14 <LCD_WR_DATA>
D:\app_for_qianrushi\exam\21\Debug/srcc/lcd.c:88
}
    8b2a:	bd10      	pop	{r4, pc}

00008b2c <LCD_DrawCircle>:
LCD_DrawCircle():
D:\app_for_qianrushi\exam\21\Debug/srcc/lcd.c:113
{
    8b2c:	b5f0      	push	{r4, r5, r6, r7, lr}
    8b2e:	46de      	mov	lr, fp
    8b30:	4657      	mov	r7, sl
    8b32:	464e      	mov	r6, r9
    8b34:	4645      	mov	r5, r8
    8b36:	b5e0      	push	{r5, r6, r7, lr}
    8b38:	b087      	sub	sp, #28
    8b3a:	4683      	mov	fp, r0
    8b3c:	468a      	mov	sl, r1
    8b3e:	9301      	str	r3, [sp, #4]
D:\app_for_qianrushi\exam\21\Debug/srcc/lcd.c:116
    a=0;b=r;
    8b40:	4691      	mov	r9, r2
D:\app_for_qianrushi\exam\21\Debug/srcc/lcd.c:117
    di=3-(r<<1);             //判断下个点位置的标志
    8b42:	0052      	lsls	r2, r2, #1
    8b44:	2303      	movs	r3, #3
    8b46:	1a9b      	subs	r3, r3, r2
    8b48:	4698      	mov	r8, r3
D:\app_for_qianrushi\exam\21\Debug/srcc/lcd.c:116
    a=0;b=r;
    8b4a:	2500      	movs	r5, #0
D:\app_for_qianrushi\exam\21\Debug/srcc/lcd.c:118
    while(a<=b)
    8b4c:	e00b      	b.n	8b66 <LCD_DrawCircle+0x3a>
D:\app_for_qianrushi\exam\21\Debug/srcc/lcd.c:131 (discriminator 1)
        if(di<0)di +=4*a+6;
    8b4e:	00ab      	lsls	r3, r5, #2
    8b50:	3306      	adds	r3, #6
    8b52:	4498      	add	r8, r3
D:\app_for_qianrushi\exam\21\Debug/srcc/lcd.c:137
        LCD_DrawPoint(x+a,y+b,color);
    8b54:	4651      	mov	r1, sl
    8b56:	4449      	add	r1, r9
    8b58:	b289      	uxth	r1, r1
    8b5a:	465b      	mov	r3, fp
    8b5c:	1958      	adds	r0, r3, r5
    8b5e:	b280      	uxth	r0, r0
    8b60:	9a01      	ldr	r2, [sp, #4]
    8b62:	f7ff ffd9 	bl	8b18 <LCD_DrawPoint>
D:\app_for_qianrushi\exam\21\Debug/srcc/lcd.c:118
    while(a<=b)
    8b66:	454d      	cmp	r5, r9
    8b68:	dc57      	bgt.n	8c1a <LCD_DrawCircle+0xee>
D:\app_for_qianrushi\exam\21\Debug/srcc/lcd.c:120
        LCD_DrawPoint(x-b,y-a,color);             //3
    8b6a:	464b      	mov	r3, r9
    8b6c:	b29e      	uxth	r6, r3
    8b6e:	465b      	mov	r3, fp
    8b70:	1b9b      	subs	r3, r3, r6
    8b72:	b29b      	uxth	r3, r3
    8b74:	b2ac      	uxth	r4, r5
    8b76:	4652      	mov	r2, sl
    8b78:	1b17      	subs	r7, r2, r4
    8b7a:	b2bf      	uxth	r7, r7
    8b7c:	9a01      	ldr	r2, [sp, #4]
    8b7e:	0039      	movs	r1, r7
    8b80:	9302      	str	r3, [sp, #8]
    8b82:	0018      	movs	r0, r3
    8b84:	f7ff ffc8 	bl	8b18 <LCD_DrawPoint>
D:\app_for_qianrushi\exam\21\Debug/srcc/lcd.c:121
        LCD_DrawPoint(x+b,y-a,color);             //0
    8b88:	465a      	mov	r2, fp
    8b8a:	18b3      	adds	r3, r6, r2
    8b8c:	b298      	uxth	r0, r3
    8b8e:	9a01      	ldr	r2, [sp, #4]
    8b90:	0039      	movs	r1, r7
    8b92:	9003      	str	r0, [sp, #12]
    8b94:	f7ff ffc0 	bl	8b18 <LCD_DrawPoint>
D:\app_for_qianrushi\exam\21\Debug/srcc/lcd.c:122
        LCD_DrawPoint(x-a,y+b,color);             //1
    8b98:	465a      	mov	r2, fp
    8b9a:	1b13      	subs	r3, r2, r4
    8b9c:	b29a      	uxth	r2, r3
    8b9e:	0010      	movs	r0, r2
    8ba0:	4652      	mov	r2, sl
    8ba2:	18b3      	adds	r3, r6, r2
    8ba4:	b299      	uxth	r1, r3
    8ba6:	9a01      	ldr	r2, [sp, #4]
    8ba8:	9105      	str	r1, [sp, #20]
    8baa:	9004      	str	r0, [sp, #16]
    8bac:	f7ff ffb4 	bl	8b18 <LCD_DrawPoint>
D:\app_for_qianrushi\exam\21\Debug/srcc/lcd.c:123
        LCD_DrawPoint(x-b,y-a,color);             //7
    8bb0:	9a01      	ldr	r2, [sp, #4]
    8bb2:	0039      	movs	r1, r7
    8bb4:	9802      	ldr	r0, [sp, #8]
    8bb6:	f7ff ffaf 	bl	8b18 <LCD_DrawPoint>
D:\app_for_qianrushi\exam\21\Debug/srcc/lcd.c:124
        LCD_DrawPoint(x-a,y-b,color);             //2
    8bba:	4652      	mov	r2, sl
    8bbc:	1b96      	subs	r6, r2, r6
    8bbe:	b2b6      	uxth	r6, r6
    8bc0:	9a01      	ldr	r2, [sp, #4]
    8bc2:	0031      	movs	r1, r6
    8bc4:	9804      	ldr	r0, [sp, #16]
    8bc6:	f7ff ffa7 	bl	8b18 <LCD_DrawPoint>
D:\app_for_qianrushi\exam\21\Debug/srcc/lcd.c:125
        LCD_DrawPoint(x+b,y+a,color);             //4
    8bca:	4652      	mov	r2, sl
    8bcc:	18a7      	adds	r7, r4, r2
    8bce:	b2bf      	uxth	r7, r7
    8bd0:	9a01      	ldr	r2, [sp, #4]
    8bd2:	0039      	movs	r1, r7
    8bd4:	9803      	ldr	r0, [sp, #12]
    8bd6:	f7ff ff9f 	bl	8b18 <LCD_DrawPoint>
D:\app_for_qianrushi\exam\21\Debug/srcc/lcd.c:126
        LCD_DrawPoint(x+a,y-b,color);             //5
    8bda:	445c      	add	r4, fp
    8bdc:	b2a4      	uxth	r4, r4
    8bde:	9a01      	ldr	r2, [sp, #4]
    8be0:	0031      	movs	r1, r6
    8be2:	0020      	movs	r0, r4
    8be4:	f7ff ff98 	bl	8b18 <LCD_DrawPoint>
D:\app_for_qianrushi\exam\21\Debug/srcc/lcd.c:127
        LCD_DrawPoint(x+a,y+b,color);             //6
    8be8:	9e01      	ldr	r6, [sp, #4]
    8bea:	0032      	movs	r2, r6
    8bec:	9905      	ldr	r1, [sp, #20]
    8bee:	0020      	movs	r0, r4
    8bf0:	f7ff ff92 	bl	8b18 <LCD_DrawPoint>
D:\app_for_qianrushi\exam\21\Debug/srcc/lcd.c:128
        LCD_DrawPoint(x-b,y+a,color);
    8bf4:	0032      	movs	r2, r6
    8bf6:	0039      	movs	r1, r7
    8bf8:	9802      	ldr	r0, [sp, #8]
    8bfa:	f7ff ff8d 	bl	8b18 <LCD_DrawPoint>
D:\app_for_qianrushi\exam\21\Debug/srcc/lcd.c:129
        a++;
    8bfe:	3501      	adds	r5, #1
D:\app_for_qianrushi\exam\21\Debug/srcc/lcd.c:131
        if(di<0)di +=4*a+6;
    8c00:	4643      	mov	r3, r8
    8c02:	2b00      	cmp	r3, #0
    8c04:	dba3      	blt.n	8b4e <LCD_DrawCircle+0x22>
D:\app_for_qianrushi\exam\21\Debug/srcc/lcd.c:134
            di+=10+4*(a-b);
    8c06:	464b      	mov	r3, r9
    8c08:	1aeb      	subs	r3, r5, r3
    8c0a:	009b      	lsls	r3, r3, #2
    8c0c:	330a      	adds	r3, #10
    8c0e:	4498      	add	r8, r3
D:\app_for_qianrushi\exam\21\Debug/srcc/lcd.c:135
            b--;
    8c10:	2301      	movs	r3, #1
    8c12:	425b      	negs	r3, r3
    8c14:	469c      	mov	ip, r3
    8c16:	44e1      	add	r9, ip
    8c18:	e79c      	b.n	8b54 <LCD_DrawCircle+0x28>
D:\app_for_qianrushi\exam\21\Debug/srcc/lcd.c:139
}
    8c1a:	b007      	add	sp, #28
    8c1c:	bc3c      	pop	{r2, r3, r4, r5}
    8c1e:	4690      	mov	r8, r2
    8c20:	4699      	mov	r9, r3
    8c22:	46a2      	mov	sl, r4
    8c24:	46ab      	mov	fp, r5
    8c26:	bdf0      	pop	{r4, r5, r6, r7, pc}

00008c28 <LCD_DrawLine>:
LCD_DrawLine():
D:\app_for_qianrushi\exam\21\Debug/srcc/lcd.c:344
{
    8c28:	b5f0      	push	{r4, r5, r6, r7, lr}
    8c2a:	46de      	mov	lr, fp
    8c2c:	4657      	mov	r7, sl
    8c2e:	464e      	mov	r6, r9
    8c30:	4645      	mov	r5, r8
    8c32:	b5e0      	push	{r5, r6, r7, lr}
    8c34:	b085      	sub	sp, #20
    8c36:	ac0e      	add	r4, sp, #56	; 0x38
    8c38:	8824      	ldrh	r4, [r4, #0]
    8c3a:	9403      	str	r4, [sp, #12]
D:\app_for_qianrushi\exam\21\Debug/srcc/lcd.c:349
    delta_x=x2-x1; //计算坐标增量
    8c3c:	9001      	str	r0, [sp, #4]
    8c3e:	1a12      	subs	r2, r2, r0
    8c40:	4692      	mov	sl, r2
D:\app_for_qianrushi\exam\21\Debug/srcc/lcd.c:350
    delta_y=y2-y1;
    8c42:	9102      	str	r1, [sp, #8]
    8c44:	1a5b      	subs	r3, r3, r1
    8c46:	469b      	mov	fp, r3
D:\app_for_qianrushi\exam\21\Debug/srcc/lcd.c:353
    if(delta_x>0)incx=1; //设置单步方向
    8c48:	2a00      	cmp	r2, #0
    8c4a:	dd0d      	ble.n	8c68 <LCD_DrawLine+0x40>
    8c4c:	2301      	movs	r3, #1
    8c4e:	4698      	mov	r8, r3
D:\app_for_qianrushi\exam\21\Debug/srcc/lcd.c:356
    if(delta_y>0)incy=1;
    8c50:	465b      	mov	r3, fp
    8c52:	2b00      	cmp	r3, #0
    8c54:	dd12      	ble.n	8c7c <LCD_DrawLine+0x54>
    8c56:	2301      	movs	r3, #1
    8c58:	4699      	mov	r9, r3
D:\app_for_qianrushi\exam\21\Debug/srcc/lcd.c:359
    if( delta_x>delta_y)distance=delta_x; //选取基本增量坐标轴
    8c5a:	45da      	cmp	sl, fp
    8c5c:	dd18      	ble.n	8c90 <LCD_DrawLine+0x68>
    8c5e:	4655      	mov	r5, sl
D:\app_for_qianrushi\exam\21\Debug/srcc/lcd.c:346
    int xerr=0,yerr=0,delta_x,delta_y,distance;
    8c60:	2700      	movs	r7, #0
    8c62:	2600      	movs	r6, #0
D:\app_for_qianrushi\exam\21\Debug/srcc/lcd.c:361
    for(t=0;t<=distance+1;t++ )//画线输出
    8c64:	2400      	movs	r4, #0
    8c66:	e017      	b.n	8c98 <LCD_DrawLine+0x70>
D:\app_for_qianrushi\exam\21\Debug/srcc/lcd.c:354
    else if(delta_x==0)incx=0;//垂直线
    8c68:	2a00      	cmp	r2, #0
    8c6a:	d005      	beq.n	8c78 <LCD_DrawLine+0x50>
D:\app_for_qianrushi\exam\21\Debug/srcc/lcd.c:355
    else {incx=-1;delta_x=-delta_x;}
    8c6c:	4253      	negs	r3, r2
    8c6e:	469a      	mov	sl, r3
    8c70:	2301      	movs	r3, #1
    8c72:	425b      	negs	r3, r3
    8c74:	4698      	mov	r8, r3
    8c76:	e7eb      	b.n	8c50 <LCD_DrawLine+0x28>
D:\app_for_qianrushi\exam\21\Debug/srcc/lcd.c:354
    else if(delta_x==0)incx=0;//垂直线
    8c78:	4690      	mov	r8, r2
    8c7a:	e7e9      	b.n	8c50 <LCD_DrawLine+0x28>
D:\app_for_qianrushi\exam\21\Debug/srcc/lcd.c:357
    else if(delta_y==0)incy=0;//水平线
    8c7c:	2b00      	cmp	r3, #0
    8c7e:	d005      	beq.n	8c8c <LCD_DrawLine+0x64>
D:\app_for_qianrushi\exam\21\Debug/srcc/lcd.c:358
    else{incy=-1;delta_y=-delta_y;}
    8c80:	425b      	negs	r3, r3
    8c82:	469b      	mov	fp, r3
    8c84:	2301      	movs	r3, #1
    8c86:	425b      	negs	r3, r3
    8c88:	4699      	mov	r9, r3
    8c8a:	e7e6      	b.n	8c5a <LCD_DrawLine+0x32>
D:\app_for_qianrushi\exam\21\Debug/srcc/lcd.c:357
    else if(delta_y==0)incy=0;//水平线
    8c8c:	46d9      	mov	r9, fp
    8c8e:	e7e4      	b.n	8c5a <LCD_DrawLine+0x32>
D:\app_for_qianrushi\exam\21\Debug/srcc/lcd.c:360
    else distance=delta_y;
    8c90:	465d      	mov	r5, fp
    8c92:	e7e5      	b.n	8c60 <LCD_DrawLine+0x38>
D:\app_for_qianrushi\exam\21\Debug/srcc/lcd.c:361 (discriminator 2)
    for(t=0;t<=distance+1;t++ )//画线输出
    8c94:	3401      	adds	r4, #1
    8c96:	b2a4      	uxth	r4, r4
D:\app_for_qianrushi\exam\21\Debug/srcc/lcd.c:361 (discriminator 1)
    8c98:	1c6b      	adds	r3, r5, #1
    8c9a:	429c      	cmp	r4, r3
    8c9c:	dc14      	bgt.n	8cc8 <LCD_DrawLine+0xa0>
D:\app_for_qianrushi\exam\21\Debug/srcc/lcd.c:363
        LCD_DrawPoint(uRow,uCol,color);//画点
    8c9e:	466b      	mov	r3, sp
    8ca0:	8919      	ldrh	r1, [r3, #8]
    8ca2:	8898      	ldrh	r0, [r3, #4]
    8ca4:	9a03      	ldr	r2, [sp, #12]
    8ca6:	f7ff ff37 	bl	8b18 <LCD_DrawPoint>
D:\app_for_qianrushi\exam\21\Debug/srcc/lcd.c:364
        xerr+=delta_x ;
    8caa:	4456      	add	r6, sl
D:\app_for_qianrushi\exam\21\Debug/srcc/lcd.c:365
        yerr+=delta_y ;
    8cac:	445f      	add	r7, fp
D:\app_for_qianrushi\exam\21\Debug/srcc/lcd.c:366
        if(xerr>distance)
    8cae:	42b5      	cmp	r5, r6
    8cb0:	da03      	bge.n	8cba <LCD_DrawLine+0x92>
D:\app_for_qianrushi\exam\21\Debug/srcc/lcd.c:368
            xerr-=distance;
    8cb2:	1b76      	subs	r6, r6, r5
D:\app_for_qianrushi\exam\21\Debug/srcc/lcd.c:369
            uRow+=incx;
    8cb4:	9b01      	ldr	r3, [sp, #4]
    8cb6:	4443      	add	r3, r8
    8cb8:	9301      	str	r3, [sp, #4]
D:\app_for_qianrushi\exam\21\Debug/srcc/lcd.c:371
        if(yerr>distance)
    8cba:	42bd      	cmp	r5, r7
    8cbc:	daea      	bge.n	8c94 <LCD_DrawLine+0x6c>
D:\app_for_qianrushi\exam\21\Debug/srcc/lcd.c:373
            yerr-=distance;
    8cbe:	1b7f      	subs	r7, r7, r5
D:\app_for_qianrushi\exam\21\Debug/srcc/lcd.c:374
            uCol+=incy;
    8cc0:	9b02      	ldr	r3, [sp, #8]
    8cc2:	444b      	add	r3, r9
    8cc4:	9302      	str	r3, [sp, #8]
    8cc6:	e7e5      	b.n	8c94 <LCD_DrawLine+0x6c>
D:\app_for_qianrushi\exam\21\Debug/srcc/lcd.c:377
}
    8cc8:	b005      	add	sp, #20
    8cca:	bc3c      	pop	{r2, r3, r4, r5}
    8ccc:	4690      	mov	r8, r2
    8cce:	4699      	mov	r9, r3
    8cd0:	46a2      	mov	sl, r4
    8cd2:	46ab      	mov	fp, r5
    8cd4:	bdf0      	pop	{r4, r5, r6, r7, pc}

00008cd6 <LCD_ShowCharactor>:
LCD_ShowCharactor():
D:\app_for_qianrushi\exam\21\Debug/srcc/lcd.c:168
{
    8cd6:	b5f0      	push	{r4, r5, r6, r7, lr}
    8cd8:	b083      	sub	sp, #12
    8cda:	0016      	movs	r6, r2
    8cdc:	9301      	str	r3, [sp, #4]
    8cde:	9f08      	ldr	r7, [sp, #32]
D:\app_for_qianrushi\exam\21\Debug/srcc/lcd.c:171
    Address_set(x,y,x+15,y+15); //设置区域
    8ce0:	000b      	movs	r3, r1
    8ce2:	330f      	adds	r3, #15
    8ce4:	b29b      	uxth	r3, r3
    8ce6:	0002      	movs	r2, r0
    8ce8:	320f      	adds	r2, #15
    8cea:	b292      	uxth	r2, r2
    8cec:	f7ff fed2 	bl	8a94 <Address_set>
D:\app_for_qianrushi\exam\21\Debug/srcc/lcd.c:172
    for(j=0;j<32;j++)
    8cf0:	2500      	movs	r5, #0
    8cf2:	e012      	b.n	8d1a <LCD_ShowCharactor+0x44>
D:\app_for_qianrushi\exam\21\Debug/srcc/lcd.c:180
            LCD_WR_DATA(groundbackcolor);
    8cf4:	9801      	ldr	r0, [sp, #4]
    8cf6:	f7ff fe8d 	bl	8a14 <LCD_WR_DATA>
D:\app_for_qianrushi\exam\21\Debug/srcc/lcd.c:174 (discriminator 2)
        for(i=0;i<8;i++)
    8cfa:	3401      	adds	r4, #1
    8cfc:	b2e4      	uxtb	r4, r4
D:\app_for_qianrushi\exam\21\Debug/srcc/lcd.c:174 (discriminator 1)
    8cfe:	2c07      	cmp	r4, #7
    8d00:	d808      	bhi.n	8d14 <LCD_ShowCharactor+0x3e>
D:\app_for_qianrushi\exam\21\Debug/srcc/lcd.c:176
            if((*temp&(1<<i))!=0)
    8d02:	2300      	movs	r3, #0
    8d04:	56fb      	ldrsb	r3, [r7, r3]
    8d06:	4123      	asrs	r3, r4
    8d08:	07db      	lsls	r3, r3, #31
    8d0a:	d5f3      	bpl.n	8cf4 <LCD_ShowCharactor+0x1e>
D:\app_for_qianrushi\exam\21\Debug/srcc/lcd.c:177
            LCD_WR_DATA(fontcolor);
    8d0c:	0030      	movs	r0, r6
    8d0e:	f7ff fe81 	bl	8a14 <LCD_WR_DATA>
    8d12:	e7f2      	b.n	8cfa <LCD_ShowCharactor+0x24>
D:\app_for_qianrushi\exam\21\Debug/srcc/lcd.c:182 (discriminator 2)
        temp++;
    8d14:	3701      	adds	r7, #1
D:\app_for_qianrushi\exam\21\Debug/srcc/lcd.c:172 (discriminator 2)
    for(j=0;j<32;j++)
    8d16:	3501      	adds	r5, #1
    8d18:	b2ed      	uxtb	r5, r5
D:\app_for_qianrushi\exam\21\Debug/srcc/lcd.c:172 (discriminator 1)
    8d1a:	2d1f      	cmp	r5, #31
    8d1c:	d801      	bhi.n	8d22 <LCD_ShowCharactor+0x4c>
D:\app_for_qianrushi\exam\21\Debug/srcc/lcd.c:174
        for(i=0;i<8;i++)
    8d1e:	2400      	movs	r4, #0
    8d20:	e7ed      	b.n	8cfe <LCD_ShowCharactor+0x28>
D:\app_for_qianrushi\exam\21\Debug/srcc/lcd.c:184
}
    8d22:	b003      	add	sp, #12
    8d24:	bdf0      	pop	{r4, r5, r6, r7, pc}
	...

00008d28 <LCD_ShowString>:
LCD_ShowString():
D:\app_for_qianrushi\exam\21\Debug/srcc/lcd.c:250
{
    8d28:	b5f0      	push	{r4, r5, r6, r7, lr}
    8d2a:	46de      	mov	lr, fp
    8d2c:	4657      	mov	r7, sl
    8d2e:	464e      	mov	r6, r9
    8d30:	b5c0      	push	{r6, r7, lr}
    8d32:	b086      	sub	sp, #24
    8d34:	4683      	mov	fp, r0
    8d36:	9104      	str	r1, [sp, #16]
    8d38:	9205      	str	r2, [sp, #20]
    8d3a:	9302      	str	r3, [sp, #8]
    8d3c:	9e0e      	ldr	r6, [sp, #56]	; 0x38
D:\app_for_qianrushi\exam\21\Debug/srcc/lcd.c:253
    k = 0;
    8d3e:	2300      	movs	r3, #0
    8d40:	469a      	mov	sl, r3
D:\app_for_qianrushi\exam\21\Debug/srcc/lcd.c:254
    while(*p != 0)
    8d42:	e037      	b.n	8db4 <LCD_ShowString+0x8c>
D:\app_for_qianrushi\exam\21\Debug/srcc/lcd.c:260
            Address_set(x+8*k,y,x+7+8*k,y+15); //设置区域
    8d44:	4653      	mov	r3, sl
    8d46:	00d8      	lsls	r0, r3, #3
    8d48:	4458      	add	r0, fp
    8d4a:	b280      	uxth	r0, r0
    8d4c:	9904      	ldr	r1, [sp, #16]
    8d4e:	000b      	movs	r3, r1
    8d50:	330f      	adds	r3, #15
    8d52:	b29b      	uxth	r3, r3
    8d54:	1dc2      	adds	r2, r0, #7
    8d56:	b292      	uxth	r2, r2
    8d58:	f7ff fe9c 	bl	8a94 <Address_set>
D:\app_for_qianrushi\exam\21\Debug/srcc/lcd.c:261
            temp+=(*p-0x20)*16;
    8d5c:	2500      	movs	r5, #0
    8d5e:	5775      	ldrsb	r5, [r6, r5]
    8d60:	3d20      	subs	r5, #32
    8d62:	012d      	lsls	r5, r5, #4
    8d64:	4b30      	ldr	r3, [pc, #192]	; (8e28 <LCD_ShowString+0x100>)
    8d66:	18ed      	adds	r5, r5, r3
D:\app_for_qianrushi\exam\21\Debug/srcc/lcd.c:262
            for(j=0;j<16;j++)
    8d68:	2700      	movs	r7, #0
    8d6a:	46b1      	mov	r9, r6
    8d6c:	003e      	movs	r6, r7
    8d6e:	9f05      	ldr	r7, [sp, #20]
    8d70:	e012      	b.n	8d98 <LCD_ShowString+0x70>
D:\app_for_qianrushi\exam\21\Debug/srcc/lcd.c:272
                        LCD_WR_DATA(groundbackcolor);
    8d72:	9802      	ldr	r0, [sp, #8]
    8d74:	f7ff fe4e 	bl	8a14 <LCD_WR_DATA>
D:\app_for_qianrushi\exam\21\Debug/srcc/lcd.c:264 (discriminator 2)
                for(i=0;i<8;i++)
    8d78:	3401      	adds	r4, #1
    8d7a:	b2e4      	uxtb	r4, r4
D:\app_for_qianrushi\exam\21\Debug/srcc/lcd.c:264 (discriminator 1)
    8d7c:	2c07      	cmp	r4, #7
    8d7e:	d808      	bhi.n	8d92 <LCD_ShowString+0x6a>
D:\app_for_qianrushi\exam\21\Debug/srcc/lcd.c:266
                    if((*temp&(1<<i))!=0)
    8d80:	2300      	movs	r3, #0
    8d82:	56eb      	ldrsb	r3, [r5, r3]
    8d84:	4123      	asrs	r3, r4
    8d86:	07db      	lsls	r3, r3, #31
    8d88:	d5f3      	bpl.n	8d72 <LCD_ShowString+0x4a>
D:\app_for_qianrushi\exam\21\Debug/srcc/lcd.c:268
                        LCD_WR_DATA(fontcolor);
    8d8a:	0038      	movs	r0, r7
    8d8c:	f7ff fe42 	bl	8a14 <LCD_WR_DATA>
    8d90:	e7f2      	b.n	8d78 <LCD_ShowString+0x50>
D:\app_for_qianrushi\exam\21\Debug/srcc/lcd.c:275 (discriminator 2)
                temp++;
    8d92:	3501      	adds	r5, #1
D:\app_for_qianrushi\exam\21\Debug/srcc/lcd.c:262 (discriminator 2)
            for(j=0;j<16;j++)
    8d94:	3601      	adds	r6, #1
    8d96:	b2f6      	uxtb	r6, r6
D:\app_for_qianrushi\exam\21\Debug/srcc/lcd.c:262 (discriminator 1)
    8d98:	2e0f      	cmp	r6, #15
    8d9a:	d801      	bhi.n	8da0 <LCD_ShowString+0x78>
D:\app_for_qianrushi\exam\21\Debug/srcc/lcd.c:264
                for(i=0;i<8;i++)
    8d9c:	2400      	movs	r4, #0
    8d9e:	e7ed      	b.n	8d7c <LCD_ShowString+0x54>
    8da0:	464e      	mov	r6, r9
D:\app_for_qianrushi\exam\21\Debug/srcc/lcd.c:277
            k++;
    8da2:	4653      	mov	r3, sl
    8da4:	3301      	adds	r3, #1
    8da6:	b2db      	uxtb	r3, r3
    8da8:	469a      	mov	sl, r3
D:\app_for_qianrushi\exam\21\Debug/srcc/lcd.c:295
        p++;
    8daa:	3601      	adds	r6, #1
D:\app_for_qianrushi\exam\21\Debug/srcc/lcd.c:296
        if (k>=30) break;
    8dac:	4653      	mov	r3, sl
    8dae:	2b1d      	cmp	r3, #29
    8db0:	d834      	bhi.n	8e1c <LCD_ShowString+0xf4>
D:\app_for_qianrushi\exam\21\Debug/srcc/lcd.c:297
        ENABLE_INTERRUPTS;
    8db2:	b662      	cpsie	i
D:\app_for_qianrushi\exam\21\Debug/srcc/lcd.c:254
    while(*p != 0)
    8db4:	2300      	movs	r3, #0
    8db6:	56f3      	ldrsb	r3, [r6, r3]
    8db8:	2b00      	cmp	r3, #0
    8dba:	d02f      	beq.n	8e1c <LCD_ShowString+0xf4>
D:\app_for_qianrushi\exam\21\Debug/srcc/lcd.c:256
        DISABLE_INTERRUPTS;
    8dbc:	b672      	cpsid	i
D:\app_for_qianrushi\exam\21\Debug/srcc/lcd.c:257
        if(*p>=0x20 && *p<=0x7e)
    8dbe:	2400      	movs	r4, #0
    8dc0:	5734      	ldrsb	r4, [r6, r4]
    8dc2:	0023      	movs	r3, r4
    8dc4:	3b20      	subs	r3, #32
    8dc6:	b2db      	uxtb	r3, r3
    8dc8:	2b5e      	cmp	r3, #94	; 0x5e
    8dca:	d9bb      	bls.n	8d44 <LCD_ShowString+0x1c>
D:\app_for_qianrushi\exam\21\Debug/srcc/lcd.c:279
        else if(*p > 0x7e)
    8dcc:	2c7f      	cmp	r4, #127	; 0x7f
    8dce:	d1ec      	bne.n	8daa <LCD_ShowString+0x82>
D:\app_for_qianrushi\exam\21\Debug/srcc/lcd.c:281
            for(i=0;i<ChineseCharacterLength;i++)
    8dd0:	2300      	movs	r3, #0
    8dd2:	e001      	b.n	8dd8 <LCD_ShowString+0xb0>
D:\app_for_qianrushi\exam\21\Debug/srcc/lcd.c:281 (discriminator 2)
    8dd4:	3301      	adds	r3, #1
    8dd6:	b2db      	uxtb	r3, r3
D:\app_for_qianrushi\exam\21\Debug/srcc/lcd.c:281 (discriminator 1)
    8dd8:	2b02      	cmp	r3, #2
    8dda:	d81a      	bhi.n	8e12 <LCD_ShowString+0xea>
D:\app_for_qianrushi\exam\21\Debug/srcc/lcd.c:284
                uint8_t b = *(p+1);
    8ddc:	2701      	movs	r7, #1
    8dde:	57f7      	ldrsb	r7, [r6, r7]
D:\app_for_qianrushi\exam\21\Debug/srcc/lcd.c:285
                uint8_t c = GB_16[i].Index[0];
    8de0:	9303      	str	r3, [sp, #12]
    8de2:	4912      	ldr	r1, [pc, #72]	; (8e2c <LCD_ShowString+0x104>)
    8de4:	011a      	lsls	r2, r3, #4
    8de6:	18d5      	adds	r5, r2, r3
    8de8:	0068      	lsls	r0, r5, #1
    8dea:	5645      	ldrsb	r5, [r0, r1]
D:\app_for_qianrushi\exam\21\Debug/srcc/lcd.c:286
                uint8_t d = GB_16[i].Index[1];
    8dec:	1809      	adds	r1, r1, r0
    8dee:	2201      	movs	r2, #1
    8df0:	568a      	ldrsb	r2, [r1, r2]
D:\app_for_qianrushi\exam\21\Debug/srcc/lcd.c:287
                if( (a == c) && (b == d))
    8df2:	42ac      	cmp	r4, r5
    8df4:	d1ee      	bne.n	8dd4 <LCD_ShowString+0xac>
D:\app_for_qianrushi\exam\21\Debug/srcc/lcd.c:287 (discriminator 1)
    8df6:	4297      	cmp	r7, r2
    8df8:	d1ec      	bne.n	8dd4 <LCD_ShowString+0xac>
D:\app_for_qianrushi\exam\21\Debug/srcc/lcd.c:289
                    LCD_ShowCharactor(x+8*k,y,fontcolor,groundbackcolor,GB_16[i].Msk);
    8dfa:	000b      	movs	r3, r1
    8dfc:	3302      	adds	r3, #2
    8dfe:	4652      	mov	r2, sl
    8e00:	00d0      	lsls	r0, r2, #3
    8e02:	4458      	add	r0, fp
    8e04:	b280      	uxth	r0, r0
    8e06:	9300      	str	r3, [sp, #0]
    8e08:	9b02      	ldr	r3, [sp, #8]
    8e0a:	9a05      	ldr	r2, [sp, #20]
    8e0c:	9904      	ldr	r1, [sp, #16]
    8e0e:	f7ff ff62 	bl	8cd6 <LCD_ShowCharactor>
D:\app_for_qianrushi\exam\21\Debug/srcc/lcd.c:293
            k++;
    8e12:	4653      	mov	r3, sl
    8e14:	3301      	adds	r3, #1
    8e16:	b2db      	uxtb	r3, r3
    8e18:	469a      	mov	sl, r3
    8e1a:	e7c6      	b.n	8daa <LCD_ShowString+0x82>
D:\app_for_qianrushi\exam\21\Debug/srcc/lcd.c:299
}
    8e1c:	b006      	add	sp, #24
    8e1e:	bc1c      	pop	{r2, r3, r4}
    8e20:	4691      	mov	r9, r2
    8e22:	469a      	mov	sl, r3
    8e24:	46a3      	mov	fp, r4
    8e26:	bdf0      	pop	{r4, r5, r6, r7, pc}
    8e28:	00009a10 	.word	0x00009a10
    8e2c:	000099a8 	.word	0x000099a8

00008e30 <LCD_DrawSurface>:
LCD_DrawSurface():
D:\app_for_qianrushi\exam\21\Debug/srcc/lcd.c:388
{
    8e30:	b5f0      	push	{r4, r5, r6, r7, lr}
    8e32:	46ce      	mov	lr, r9
    8e34:	b500      	push	{lr}
    8e36:	b082      	sub	sp, #8
    8e38:	9001      	str	r0, [sp, #4]
    8e3a:	000e      	movs	r6, r1
    8e3c:	0017      	movs	r7, r2
    8e3e:	4699      	mov	r9, r3
    8e40:	ab08      	add	r3, sp, #32
    8e42:	881d      	ldrh	r5, [r3, #0]
D:\app_for_qianrushi\exam\21\Debug/srcc/lcd.c:390
    Address_set(x1,y1,x2,y2);      //设置光标位置
    8e44:	464b      	mov	r3, r9
    8e46:	f7ff fe25 	bl	8a94 <Address_set>
D:\app_for_qianrushi\exam\21\Debug/srcc/lcd.c:391
    for(i=y1;i<=y2;i++)
    8e4a:	e008      	b.n	8e5e <LCD_DrawSurface+0x2e>
D:\app_for_qianrushi\exam\21\Debug/srcc/lcd.c:393 (discriminator 3)
        for(j=x1;j<=x2;j++)LCD_WR_DATA(color);//画点
    8e4c:	0028      	movs	r0, r5
    8e4e:	f7ff fde1 	bl	8a14 <LCD_WR_DATA>
    8e52:	3401      	adds	r4, #1
    8e54:	b2a4      	uxth	r4, r4
D:\app_for_qianrushi\exam\21\Debug/srcc/lcd.c:393 (discriminator 1)
    8e56:	42bc      	cmp	r4, r7
    8e58:	d9f8      	bls.n	8e4c <LCD_DrawSurface+0x1c>
D:\app_for_qianrushi\exam\21\Debug/srcc/lcd.c:391 (discriminator 2)
    for(i=y1;i<=y2;i++)
    8e5a:	3601      	adds	r6, #1
    8e5c:	b2b6      	uxth	r6, r6
D:\app_for_qianrushi\exam\21\Debug/srcc/lcd.c:391 (discriminator 1)
    8e5e:	454e      	cmp	r6, r9
    8e60:	d801      	bhi.n	8e66 <LCD_DrawSurface+0x36>
D:\app_for_qianrushi\exam\21\Debug/srcc/lcd.c:393
        for(j=x1;j<=x2;j++)LCD_WR_DATA(color);//画点
    8e62:	9c01      	ldr	r4, [sp, #4]
    8e64:	e7f7      	b.n	8e56 <LCD_DrawSurface+0x26>
D:\app_for_qianrushi\exam\21\Debug/srcc/lcd.c:395
}
    8e66:	b002      	add	sp, #8
    8e68:	bc04      	pop	{r2}
    8e6a:	4691      	mov	r9, r2
    8e6c:	bdf0      	pop	{r4, r5, r6, r7, pc}
	...

00008e70 <LCD_aotu>:
LCD_aotu():
D:\app_for_qianrushi\exam\21\Debug/srcc/lcd.c:307
{
    8e70:	b5f0      	push	{r4, r5, r6, r7, lr}
    8e72:	46d6      	mov	lr, sl
    8e74:	464f      	mov	r7, r9
    8e76:	4646      	mov	r6, r8
    8e78:	b5c0      	push	{r6, r7, lr}
    8e7a:	b086      	sub	sp, #24
    8e7c:	0007      	movs	r7, r0
    8e7e:	9003      	str	r0, [sp, #12]
    8e80:	0016      	movs	r6, r2
    8e82:	9204      	str	r2, [sp, #16]
    8e84:	001d      	movs	r5, r3
    8e86:	9305      	str	r3, [sp, #20]
    8e88:	ab0e      	add	r3, sp, #56	; 0x38
    8e8a:	781b      	ldrb	r3, [r3, #0]
    8e8c:	4699      	mov	r9, r3
D:\app_for_qianrushi\exam\21\Debug/srcc/lcd.c:311
    LCD_DrawSurface(x,y,x1,y1,color);
    8e8e:	4b38      	ldr	r3, [pc, #224]	; (8f70 <LCD_aotu+0x100>)
    8e90:	9300      	str	r3, [sp, #0]
    8e92:	002b      	movs	r3, r5
    8e94:	9102      	str	r1, [sp, #8]
    8e96:	f7ff ffcb 	bl	8e30 <LCD_DrawSurface>
D:\app_for_qianrushi\exam\21\Debug/srcc/lcd.c:314
    LCD_DrawLine(x,y,x1,y,color);
    8e9a:	2400      	movs	r4, #0
    8e9c:	9400      	str	r4, [sp, #0]
    8e9e:	9902      	ldr	r1, [sp, #8]
    8ea0:	000b      	movs	r3, r1
    8ea2:	0032      	movs	r2, r6
    8ea4:	0038      	movs	r0, r7
    8ea6:	f7ff febf 	bl	8c28 <LCD_DrawLine>
D:\app_for_qianrushi\exam\21\Debug/srcc/lcd.c:315
    LCD_DrawLine(x,y,x,y1,color);
    8eaa:	9400      	str	r4, [sp, #0]
    8eac:	002b      	movs	r3, r5
    8eae:	003a      	movs	r2, r7
    8eb0:	9902      	ldr	r1, [sp, #8]
    8eb2:	0038      	movs	r0, r7
    8eb4:	f7ff feb8 	bl	8c28 <LCD_DrawLine>
D:\app_for_qianrushi\exam\21\Debug/srcc/lcd.c:317
    LCD_DrawLine(x1,y,x1,y1,color);
    8eb8:	9400      	str	r4, [sp, #0]
    8eba:	002b      	movs	r3, r5
    8ebc:	0032      	movs	r2, r6
    8ebe:	9902      	ldr	r1, [sp, #8]
    8ec0:	0030      	movs	r0, r6
    8ec2:	f7ff feb1 	bl	8c28 <LCD_DrawLine>
D:\app_for_qianrushi\exam\21\Debug/srcc/lcd.c:318
    LCD_DrawLine(x,y1,x1,y1,color);
    8ec6:	9400      	str	r4, [sp, #0]
    8ec8:	002b      	movs	r3, r5
    8eca:	0032      	movs	r2, r6
    8ecc:	0029      	movs	r1, r5
    8ece:	0038      	movs	r0, r7
    8ed0:	f7ff feaa 	bl	8c28 <LCD_DrawLine>
D:\app_for_qianrushi\exam\21\Debug/srcc/lcd.c:320
    for(i=1;i<n;i++)
    8ed4:	2501      	movs	r5, #1
    8ed6:	46a8      	mov	r8, r5
D:\app_for_qianrushi\exam\21\Debug/srcc/lcd.c:320 (discriminator 2)
    8ed8:	4643      	mov	r3, r8
    8eda:	2b01      	cmp	r3, #1
    8edc:	d905      	bls.n	8eea <LCD_aotu+0x7a>
D:\app_for_qianrushi\exam\21\Debug/srcc/lcd.c:333
};
    8ede:	b006      	add	sp, #24
    8ee0:	bc1c      	pop	{r2, r3, r4}
    8ee2:	4690      	mov	r8, r2
    8ee4:	4699      	mov	r9, r3
    8ee6:	46a2      	mov	sl, r4
    8ee8:	bdf0      	pop	{r4, r5, r6, r7, pc}
D:\app_for_qianrushi\exam\21\Debug/srcc/lcd.c:323
        color=(s==0?BLACK:WHITE);  //
    8eea:	464b      	mov	r3, r9
    8eec:	2b00      	cmp	r3, #0
    8eee:	d138      	bne.n	8f62 <LCD_aotu+0xf2>
    8ef0:	46ca      	mov	sl, r9
D:\app_for_qianrushi\exam\21\Debug/srcc/lcd.c:325 (discriminator 4)
        LCD_DrawLine(x+i,y+i,x1-i,y+i,color);
    8ef2:	4643      	mov	r3, r8
    8ef4:	b29c      	uxth	r4, r3
    8ef6:	9b03      	ldr	r3, [sp, #12]
    8ef8:	18e6      	adds	r6, r4, r3
    8efa:	b2b6      	uxth	r6, r6
    8efc:	9b02      	ldr	r3, [sp, #8]
    8efe:	18e5      	adds	r5, r4, r3
    8f00:	b2ad      	uxth	r5, r5
    8f02:	9b04      	ldr	r3, [sp, #16]
    8f04:	1b1f      	subs	r7, r3, r4
    8f06:	b2bf      	uxth	r7, r7
    8f08:	4653      	mov	r3, sl
    8f0a:	9300      	str	r3, [sp, #0]
    8f0c:	002b      	movs	r3, r5
    8f0e:	003a      	movs	r2, r7
    8f10:	0029      	movs	r1, r5
    8f12:	0030      	movs	r0, r6
    8f14:	f7ff fe88 	bl	8c28 <LCD_DrawLine>
D:\app_for_qianrushi\exam\21\Debug/srcc/lcd.c:326 (discriminator 4)
        LCD_DrawLine(x+i,y+i,x+i,y1-i,color);
    8f18:	9b05      	ldr	r3, [sp, #20]
    8f1a:	1b1c      	subs	r4, r3, r4
    8f1c:	b2a4      	uxth	r4, r4
    8f1e:	4653      	mov	r3, sl
    8f20:	9300      	str	r3, [sp, #0]
    8f22:	0023      	movs	r3, r4
    8f24:	0032      	movs	r2, r6
    8f26:	0029      	movs	r1, r5
    8f28:	0030      	movs	r0, r6
    8f2a:	f7ff fe7d 	bl	8c28 <LCD_DrawLine>
D:\app_for_qianrushi\exam\21\Debug/srcc/lcd.c:328 (discriminator 4)
        color=(s==0?WHITE:BLACK);
    8f2e:	464b      	mov	r3, r9
    8f30:	2b00      	cmp	r3, #0
    8f32:	d119      	bne.n	8f68 <LCD_aotu+0xf8>
D:\app_for_qianrushi\exam\21\Debug/srcc/lcd.c:328
    8f34:	4b0f      	ldr	r3, [pc, #60]	; (8f74 <LCD_aotu+0x104>)
    8f36:	469a      	mov	sl, r3
D:\app_for_qianrushi\exam\21\Debug/srcc/lcd.c:330 (discriminator 4)
        LCD_DrawLine(x1-i,y+i,x1-i,y1-i,color);
    8f38:	4653      	mov	r3, sl
    8f3a:	9300      	str	r3, [sp, #0]
    8f3c:	0023      	movs	r3, r4
    8f3e:	003a      	movs	r2, r7
    8f40:	0029      	movs	r1, r5
    8f42:	0038      	movs	r0, r7
    8f44:	f7ff fe70 	bl	8c28 <LCD_DrawLine>
D:\app_for_qianrushi\exam\21\Debug/srcc/lcd.c:331 (discriminator 4)
        LCD_DrawLine(x+i,y1-i,x1-i,y1-i,color);
    8f48:	4653      	mov	r3, sl
    8f4a:	9300      	str	r3, [sp, #0]
    8f4c:	0023      	movs	r3, r4
    8f4e:	003a      	movs	r2, r7
    8f50:	0021      	movs	r1, r4
    8f52:	0030      	movs	r0, r6
    8f54:	f7ff fe68 	bl	8c28 <LCD_DrawLine>
D:\app_for_qianrushi\exam\21\Debug/srcc/lcd.c:320 (discriminator 4)
    for(i=1;i<n;i++)
    8f58:	4643      	mov	r3, r8
    8f5a:	3301      	adds	r3, #1
    8f5c:	b2db      	uxtb	r3, r3
    8f5e:	4698      	mov	r8, r3
    8f60:	e7ba      	b.n	8ed8 <LCD_aotu+0x68>
D:\app_for_qianrushi\exam\21\Debug/srcc/lcd.c:323
        color=(s==0?BLACK:WHITE);  //
    8f62:	4b04      	ldr	r3, [pc, #16]	; (8f74 <LCD_aotu+0x104>)
    8f64:	469a      	mov	sl, r3
    8f66:	e7c4      	b.n	8ef2 <LCD_aotu+0x82>
D:\app_for_qianrushi\exam\21\Debug/srcc/lcd.c:328
        color=(s==0?WHITE:BLACK);
    8f68:	2300      	movs	r3, #0
    8f6a:	469a      	mov	sl, r3
    8f6c:	e7e4      	b.n	8f38 <LCD_aotu+0xc8>
    8f6e:	46c0      	nop			; (mov r8, r8)
    8f70:	00008430 	.word	0x00008430
    8f74:	0000ffff 	.word	0x0000ffff

00008f78 <LCD_Dly_ms>:
LCD_Dly_ms():
D:\app_for_qianrushi\exam\21\Debug/srcc/lcd.c:477
//功能概要：延时 - 毫秒级
//======================================================================

void LCD_Dly_ms(uint32_t ms)
{
   for (uint32_t ys=0;ys<(6000*ms);ys++) __asm("nop");
    8f78:	2200      	movs	r2, #0
    8f7a:	e001      	b.n	8f80 <LCD_Dly_ms+0x8>
D:\app_for_qianrushi\exam\21\Debug/srcc/lcd.c:477 (discriminator 3)
    8f7c:	46c0      	nop			; (mov r8, r8)
    8f7e:	3201      	adds	r2, #1
D:\app_for_qianrushi\exam\21\Debug/srcc/lcd.c:477 (discriminator 1)
    8f80:	4b02      	ldr	r3, [pc, #8]	; (8f8c <LCD_Dly_ms+0x14>)
    8f82:	4343      	muls	r3, r0
    8f84:	4293      	cmp	r3, r2
    8f86:	d8f9      	bhi.n	8f7c <LCD_Dly_ms+0x4>
D:\app_for_qianrushi\exam\21\Debug/srcc/lcd.c:478
}
    8f88:	4770      	bx	lr
    8f8a:	46c0      	nop			; (mov r8, r8)
    8f8c:	00001770 	.word	0x00001770

00008f90 <LCD_Init>:
LCD_Init():
D:\app_for_qianrushi\exam\21\Debug/srcc/lcd.c:30
{
    8f90:	b510      	push	{r4, lr}
    8f92:	b082      	sub	sp, #8
D:\app_for_qianrushi\exam\21\Debug/srcc/lcd.c:32
	spi_init(LCD_SPI,1,20000,0,0);
    8f94:	2300      	movs	r3, #0
    8f96:	9300      	str	r3, [sp, #0]
    8f98:	4a25      	ldr	r2, [pc, #148]	; (9030 <LCD_Init+0xa0>)
    8f9a:	2101      	movs	r1, #1
    8f9c:	2000      	movs	r0, #0
    8f9e:	f7ff fb4d 	bl	863c <spi_init>
D:\app_for_qianrushi\exam\21\Debug/srcc/lcd.c:33
    gpio_init(LCD_RS,1,0);
    8fa2:	4c24      	ldr	r4, [pc, #144]	; (9034 <LCD_Init+0xa4>)
    8fa4:	2200      	movs	r2, #0
    8fa6:	2101      	movs	r1, #1
    8fa8:	0020      	movs	r0, r4
    8faa:	f7ff fab5 	bl	8518 <gpio_init>
D:\app_for_qianrushi\exam\21\Debug/srcc/lcd.c:34
    gpio_init(LCD_DC,1,0);
    8fae:	2200      	movs	r2, #0
    8fb0:	2101      	movs	r1, #1
    8fb2:	4821      	ldr	r0, [pc, #132]	; (9038 <LCD_Init+0xa8>)
    8fb4:	f7ff fab0 	bl	8518 <gpio_init>
D:\app_for_qianrushi\exam\21\Debug/srcc/lcd.c:35
    gpio_init(LCD_CS,1,1);
    8fb8:	20c0      	movs	r0, #192	; 0xc0
    8fba:	2201      	movs	r2, #1
    8fbc:	2101      	movs	r1, #1
    8fbe:	0080      	lsls	r0, r0, #2
    8fc0:	f7ff faaa 	bl	8518 <gpio_init>
D:\app_for_qianrushi\exam\21\Debug/srcc/lcd.c:37
    LCD_WR_REG_DATA(0,0);
    8fc4:	2100      	movs	r1, #0
    8fc6:	2000      	movs	r0, #0
    8fc8:	f7ff fd5c 	bl	8a84 <LCD_WR_REG_DATA>
D:\app_for_qianrushi\exam\21\Debug/srcc/lcd.c:39
    gpio_set(LCD_RS,0);
    8fcc:	2100      	movs	r1, #0
    8fce:	0020      	movs	r0, r4
    8fd0:	f7ff fa80 	bl	84d4 <gpio_set>
D:\app_for_qianrushi\exam\21\Debug/srcc/lcd.c:40
	LCD_Dly_ms(100);
    8fd4:	2064      	movs	r0, #100	; 0x64
    8fd6:	f7ff ffcf 	bl	8f78 <LCD_Dly_ms>
D:\app_for_qianrushi\exam\21\Debug/srcc/lcd.c:41
    gpio_set(LCD_RS,1);
    8fda:	2101      	movs	r1, #1
    8fdc:	0020      	movs	r0, r4
    8fde:	f7ff fa79 	bl	84d4 <gpio_set>
D:\app_for_qianrushi\exam\21\Debug/srcc/lcd.c:42
	LCD_Dly_ms(100);
    8fe2:	2064      	movs	r0, #100	; 0x64
    8fe4:	f7ff ffc8 	bl	8f78 <LCD_Dly_ms>
D:\app_for_qianrushi\exam\21\Debug/srcc/lcd.c:44
    LCD_WR_REG(0x36);    //存储器访问控制，显示屏正向显示写0x00/0x08,显示器反向显示写0xD0/0xD8
    8fe8:	2036      	movs	r0, #54	; 0x36
    8fea:	f7ff fd31 	bl	8a50 <LCD_WR_REG>
D:\app_for_qianrushi\exam\21\Debug/srcc/lcd.c:45
    LCD_WR_DATA8(0x00);  //0x00：ST7789V（新LCD）正常，ILI9341V红蓝颠倒
    8fee:	2000      	movs	r0, #0
    8ff0:	f7ff fcf6 	bl	89e0 <LCD_WR_DATA8>
D:\app_for_qianrushi\exam\21\Debug/srcc/lcd.c:47
    LCD_WR_REG(0xB6);    //显示功能控制
    8ff4:	20b6      	movs	r0, #182	; 0xb6
    8ff6:	f7ff fd2b 	bl	8a50 <LCD_WR_REG>
D:\app_for_qianrushi\exam\21\Debug/srcc/lcd.c:48
    LCD_WR_DATA8(0x0A);
    8ffa:	200a      	movs	r0, #10
    8ffc:	f7ff fcf0 	bl	89e0 <LCD_WR_DATA8>
D:\app_for_qianrushi\exam\21\Debug/srcc/lcd.c:49
    LCD_WR_DATA8(0xA2);
    9000:	20a2      	movs	r0, #162	; 0xa2
    9002:	f7ff fced 	bl	89e0 <LCD_WR_DATA8>
D:\app_for_qianrushi\exam\21\Debug/srcc/lcd.c:51
    LCD_WR_REG(0x3a);  //定义RGB图像数据格式
    9006:	203a      	movs	r0, #58	; 0x3a
    9008:	f7ff fd22 	bl	8a50 <LCD_WR_REG>
D:\app_for_qianrushi\exam\21\Debug/srcc/lcd.c:52
    LCD_WR_DATA8(0x05);//16位/像素
    900c:	2005      	movs	r0, #5
    900e:	f7ff fce7 	bl	89e0 <LCD_WR_DATA8>
D:\app_for_qianrushi\exam\21\Debug/srcc/lcd.c:54
    LCD_WR_REG(0x11);     //退出睡眠模式
    9012:	2011      	movs	r0, #17
    9014:	f7ff fd1c 	bl	8a50 <LCD_WR_REG>
D:\app_for_qianrushi\exam\21\Debug/srcc/lcd.c:55
	LCD_Dly_ms(800);     
    9018:	20c8      	movs	r0, #200	; 0xc8
    901a:	0080      	lsls	r0, r0, #2
    901c:	f7ff ffac 	bl	8f78 <LCD_Dly_ms>
D:\app_for_qianrushi\exam\21\Debug/srcc/lcd.c:56
    LCD_Clear(WHITE);
    9020:	4806      	ldr	r0, [pc, #24]	; (903c <LCD_Init+0xac>)
    9022:	f7ff fd5e 	bl	8ae2 <LCD_Clear>
D:\app_for_qianrushi\exam\21\Debug/srcc/lcd.c:57
    LCD_WR_REG(0x29);
    9026:	2029      	movs	r0, #41	; 0x29
    9028:	f7ff fd12 	bl	8a50 <LCD_WR_REG>
D:\app_for_qianrushi\exam\21\Debug/srcc/lcd.c:58
}
    902c:	b002      	add	sp, #8
    902e:	bd10      	pop	{r4, pc}
    9030:	00004e20 	.word	0x00004e20
    9034:	00000302 	.word	0x00000302
    9038:	00000301 	.word	0x00000301
    903c:	0000ffff 	.word	0x0000ffff

00009040 <UART0_IRQHandler>:
UART0_IRQHandler():
D:\app_for_qianrushi\exam\21\Debug/srcc/isr.c:16
//功    能：收到一个字节，直接返回该字节
//备    注：进入本程序后，可使用uart_get_re_int函数可再进行中断标志判断
//          （1-有UART接收中断，0-没有UART接收中断）
//======================================================================
void UART_User_Handler(void)
{
    9040:	b510      	push	{r4, lr}
    9042:	b082      	sub	sp, #8
D:\app_for_qianrushi\exam\21\Debug/srcc/isr.c:19
	uint8_t ch;
	uint8_t flag;
	DISABLE_INTERRUPTS;      //关总中断
    9044:	b672      	cpsid	i
D:\app_for_qianrushi\exam\21\Debug/srcc/isr.c:22
	//------------------------------------------------------------------
	//接收一个字节
	ch = uart_re1(UART_User, &flag);   //调用接收一个字节的函数，清接收中断位
    9046:	466b      	mov	r3, sp
    9048:	1ddc      	adds	r4, r3, #7
    904a:	0021      	movs	r1, r4
    904c:	2000      	movs	r0, #0
    904e:	f7ff fc93 	bl	8978 <uart_re1>
D:\app_for_qianrushi\exam\21\Debug/srcc/isr.c:23
	if(flag)   //有数据
    9052:	7823      	ldrb	r3, [r4, #0]
    9054:	2b00      	cmp	r3, #0
    9056:	d102      	bne.n	905e <UART0_IRQHandler+0x1e>
D:\app_for_qianrushi\exam\21\Debug/srcc/isr.c:28
	{
		uart_send1(UART_User,ch);//回发接收到的字节
	}
	//------------------------------------------------------------------
	ENABLE_INTERRUPTS;       //开总中断
    9058:	b662      	cpsie	i
D:\app_for_qianrushi\exam\21\Debug/srcc/isr.c:29
}
    905a:	b002      	add	sp, #8
    905c:	bd10      	pop	{r4, pc}
D:\app_for_qianrushi\exam\21\Debug/srcc/isr.c:25
		uart_send1(UART_User,ch);//回发接收到的字节
    905e:	0001      	movs	r1, r0
    9060:	2000      	movs	r0, #0
    9062:	f7ff fc5b 	bl	891c <uart_send1>
    9066:	e7f7      	b.n	9058 <UART0_IRQHandler+0x18>

00009068 <printk_putc>:
printk_putc():
D:\app_for_qianrushi\exam\21\Debug/srcc/printf.c:26
//功能概要：通过串口打出一个字符
//参数说明：data:数据：通过串口发送的一字节数据
//函数返回：无
//======================================================================
static void printk_putc(int c, int *count, PRINTK_INFO *info)
{
    9068:	b510      	push	{r4, lr}
    906a:	000c      	movs	r4, r1
D:\app_for_qianrushi\exam\21\Debug/srcc/printf.c:27
	switch (info->dest) {
    906c:	6813      	ldr	r3, [r2, #0]
    906e:	2b01      	cmp	r3, #1
    9070:	d005      	beq.n	907e <printk_putc+0x16>
    9072:	2b02      	cmp	r3, #2
    9074:	d007      	beq.n	9086 <printk_putc+0x1e>
D:\app_for_qianrushi\exam\21\Debug/srcc/printf.c:38
		++(info->loc);
		break;
	default:
		break;
	}
	*count += 1;
    9076:	6823      	ldr	r3, [r4, #0]
    9078:	3301      	adds	r3, #1
    907a:	6023      	str	r3, [r4, #0]
D:\app_for_qianrushi\exam\21\Debug/srcc/printf.c:39
}
    907c:	bd10      	pop	{r4, pc}
D:\app_for_qianrushi\exam\21\Debug/srcc/printf.c:29
		info->func((char) c);
    907e:	6853      	ldr	r3, [r2, #4]
    9080:	b240      	sxtb	r0, r0
    9082:	4798      	blx	r3
D:\app_for_qianrushi\exam\21\Debug/srcc/printf.c:30
		break;
    9084:	e7f7      	b.n	9076 <printk_putc+0xe>
D:\app_for_qianrushi\exam\21\Debug/srcc/printf.c:32
		*(info->loc) = (unsigned char) c;
    9086:	6893      	ldr	r3, [r2, #8]
    9088:	7018      	strb	r0, [r3, #0]
D:\app_for_qianrushi\exam\21\Debug/srcc/printf.c:33
		++(info->loc);
    908a:	6893      	ldr	r3, [r2, #8]
    908c:	3301      	adds	r3, #1
    908e:	6093      	str	r3, [r2, #8]
D:\app_for_qianrushi\exam\21\Debug/srcc/printf.c:34
		break;
    9090:	e7f1      	b.n	9076 <printk_putc+0xe>

00009092 <printk_mknumstr>:
printk_mknumstr():
D:\app_for_qianrushi\exam\21\Debug/srcc/printf.c:126
//       neg:有无符号:判断数据时有符号还是无符号整形
//       radix:格式选择:确定输出格式例如：十进制或十六进制...
//函数返回：无
//======================================================================
static int printk_mknumstr(char *numstr, void *nump, int neg, int radix)
{
    9092:	b5f0      	push	{r4, r5, r6, r7, lr}
    9094:	b083      	sub	sp, #12
    9096:	0016      	movs	r6, r2
    9098:	001d      	movs	r5, r3
D:\app_for_qianrushi\exam\21\Debug/srcc/printf.c:134
	int nlen;
	char *nstrp;

	nlen = 0;
	nstrp = numstr;
	*nstrp++ = '\0';
    909a:	1c47      	adds	r7, r0, #1
    909c:	2300      	movs	r3, #0
    909e:	7003      	strb	r3, [r0, #0]
D:\app_for_qianrushi\exam\21\Debug/srcc/printf.c:136

	if (neg) {
    90a0:	2a00      	cmp	r2, #0
    90a2:	d01f      	beq.n	90e4 <printk_mknumstr+0x52>
D:\app_for_qianrushi\exam\21\Debug/srcc/printf.c:137
		a = *(int *) nump;
    90a4:	680c      	ldr	r4, [r1, #0]
D:\app_for_qianrushi\exam\21\Debug/srcc/printf.c:138
		if (a == 0) {
    90a6:	2c00      	cmp	r4, #0
    90a8:	d001      	beq.n	90ae <printk_mknumstr+0x1c>
D:\app_for_qianrushi\exam\21\Debug/srcc/printf.c:132
	nlen = 0;
    90aa:	2600      	movs	r6, #0
    90ac:	e00b      	b.n	90c6 <printk_mknumstr+0x34>
D:\app_for_qianrushi\exam\21\Debug/srcc/printf.c:139
			*nstrp = '0';
    90ae:	3330      	adds	r3, #48	; 0x30
    90b0:	7043      	strb	r3, [r0, #1]
D:\app_for_qianrushi\exam\21\Debug/srcc/printf.c:140
			++nlen;
    90b2:	2601      	movs	r6, #1
D:\app_for_qianrushi\exam\21\Debug/srcc/printf.c:176
			*nstrp++ = (char) uc;
			++nlen;
		}
	}
	done: return nlen;
}
    90b4:	0030      	movs	r0, r6
    90b6:	b003      	add	sp, #12
    90b8:	bdf0      	pop	{r4, r5, r6, r7, pc}
D:\app_for_qianrushi\exam\21\Debug/srcc/printf.c:147
				c = ~c + 1 + '0';
    90ba:	2330      	movs	r3, #48	; 0x30
    90bc:	1a59      	subs	r1, r3, r1
D:\app_for_qianrushi\exam\21\Debug/srcc/printf.c:152
			*nstrp++ = (char) c;
    90be:	7039      	strb	r1, [r7, #0]
D:\app_for_qianrushi\exam\21\Debug/srcc/printf.c:153
			++nlen;
    90c0:	3601      	adds	r6, #1
D:\app_for_qianrushi\exam\21\Debug/srcc/printf.c:152
			*nstrp++ = (char) c;
    90c2:	3701      	adds	r7, #1
D:\app_for_qianrushi\exam\21\Debug/srcc/printf.c:151
			a = b;
    90c4:	9c01      	ldr	r4, [sp, #4]
D:\app_for_qianrushi\exam\21\Debug/srcc/printf.c:143
		while (a != 0) {
    90c6:	2c00      	cmp	r4, #0
    90c8:	d0f4      	beq.n	90b4 <printk_mknumstr+0x22>
D:\app_for_qianrushi\exam\21\Debug/srcc/printf.c:144
			b = (int) a / (int) radix;
    90ca:	0029      	movs	r1, r5
    90cc:	0020      	movs	r0, r4
    90ce:	f7fd fe75 	bl	6dbc <__divsi3>
    90d2:	9001      	str	r0, [sp, #4]
    90d4:	0029      	movs	r1, r5
    90d6:	0020      	movs	r0, r4
    90d8:	f7fd ff56 	bl	6f88 <__aeabi_idivmod>
D:\app_for_qianrushi\exam\21\Debug/srcc/printf.c:146
			if (c < 0) {
    90dc:	2900      	cmp	r1, #0
    90de:	dbec      	blt.n	90ba <printk_mknumstr+0x28>
D:\app_for_qianrushi\exam\21\Debug/srcc/printf.c:149
				c = c + '0';
    90e0:	3130      	adds	r1, #48	; 0x30
    90e2:	e7ec      	b.n	90be <printk_mknumstr+0x2c>
D:\app_for_qianrushi\exam\21\Debug/srcc/printf.c:156
		ua = *(unsigned int *) nump;
    90e4:	680c      	ldr	r4, [r1, #0]
D:\app_for_qianrushi\exam\21\Debug/srcc/printf.c:157
		if (ua == 0) {
    90e6:	2c00      	cmp	r4, #0
    90e8:	d108      	bne.n	90fc <printk_mknumstr+0x6a>
D:\app_for_qianrushi\exam\21\Debug/srcc/printf.c:158
			*nstrp = '0';
    90ea:	2330      	movs	r3, #48	; 0x30
    90ec:	7043      	strb	r3, [r0, #1]
D:\app_for_qianrushi\exam\21\Debug/srcc/printf.c:159
			++nlen;
    90ee:	2601      	movs	r6, #1
D:\app_for_qianrushi\exam\21\Debug/srcc/printf.c:160
			goto done;
    90f0:	e7e0      	b.n	90b4 <printk_mknumstr+0x22>
D:\app_for_qianrushi\exam\21\Debug/srcc/printf.c:168
				uc = uc - 10 + 'A';
    90f2:	3437      	adds	r4, #55	; 0x37
D:\app_for_qianrushi\exam\21\Debug/srcc/printf.c:171
			*nstrp++ = (char) uc;
    90f4:	703c      	strb	r4, [r7, #0]
D:\app_for_qianrushi\exam\21\Debug/srcc/printf.c:172
			++nlen;
    90f6:	3601      	adds	r6, #1
D:\app_for_qianrushi\exam\21\Debug/srcc/printf.c:171
			*nstrp++ = (char) uc;
    90f8:	3701      	adds	r7, #1
D:\app_for_qianrushi\exam\21\Debug/srcc/printf.c:170
			ua = ub;
    90fa:	0004      	movs	r4, r0
D:\app_for_qianrushi\exam\21\Debug/srcc/printf.c:162
		while (ua != 0) {
    90fc:	2c00      	cmp	r4, #0
    90fe:	d0d9      	beq.n	90b4 <printk_mknumstr+0x22>
D:\app_for_qianrushi\exam\21\Debug/srcc/printf.c:163
			ub = (unsigned int) ua / (unsigned int) radix;
    9100:	0029      	movs	r1, r5
    9102:	0020      	movs	r0, r4
    9104:	f7fd fdd0 	bl	6ca8 <__udivsi3>
D:\app_for_qianrushi\exam\21\Debug/srcc/printf.c:164
			uc = (unsigned int) ua - ((unsigned int) ub * (unsigned int) radix);
    9108:	0003      	movs	r3, r0
    910a:	436b      	muls	r3, r5
    910c:	1ae4      	subs	r4, r4, r3
D:\app_for_qianrushi\exam\21\Debug/srcc/printf.c:165
			if (uc < 10) {
    910e:	2c09      	cmp	r4, #9
    9110:	d8ef      	bhi.n	90f2 <printk_mknumstr+0x60>
D:\app_for_qianrushi\exam\21\Debug/srcc/printf.c:166
				uc = uc + '0';
    9112:	3430      	adds	r4, #48	; 0x30
    9114:	e7ee      	b.n	90f4 <printk_mknumstr+0x62>

00009116 <printk_pad_zero>:
printk_pad_zero():
D:\app_for_qianrushi\exam\21\Debug/srcc/printf.c:179
/********************************************************************/
static void printk_pad_zero(int curlen, int field_width, int *count,
		PRINTK_INFO *info) {
    9116:	b5f8      	push	{r3, r4, r5, r6, r7, lr}
    9118:	0004      	movs	r4, r0
    911a:	000d      	movs	r5, r1
    911c:	0017      	movs	r7, r2
    911e:	001e      	movs	r6, r3
D:\app_for_qianrushi\exam\21\Debug/srcc/printf.c:182
	int i;

	for (i = curlen; i < field_width; i++) {
    9120:	e005      	b.n	912e <printk_pad_zero+0x18>
D:\app_for_qianrushi\exam\21\Debug/srcc/printf.c:183 (discriminator 3)
		printk_putc('0', count, info);
    9122:	0032      	movs	r2, r6
    9124:	0039      	movs	r1, r7
    9126:	2030      	movs	r0, #48	; 0x30
    9128:	f7ff ff9e 	bl	9068 <printk_putc>
D:\app_for_qianrushi\exam\21\Debug/srcc/printf.c:182 (discriminator 3)
	for (i = curlen; i < field_width; i++) {
    912c:	3401      	adds	r4, #1
D:\app_for_qianrushi\exam\21\Debug/srcc/printf.c:182 (discriminator 1)
    912e:	42ac      	cmp	r4, r5
    9130:	dbf7      	blt.n	9122 <printk_pad_zero+0xc>
D:\app_for_qianrushi\exam\21\Debug/srcc/printf.c:185
	}
}
    9132:	bdf8      	pop	{r3, r4, r5, r6, r7, pc}

00009134 <printk_pad_space>:
printk_pad_space():
D:\app_for_qianrushi\exam\21\Debug/srcc/printf.c:189

/********************************************************************/
static void printk_pad_space(int curlen, int field_width, int *count,
		PRINTK_INFO *info) {
    9134:	b5f8      	push	{r3, r4, r5, r6, r7, lr}
    9136:	0004      	movs	r4, r0
    9138:	000d      	movs	r5, r1
    913a:	0017      	movs	r7, r2
    913c:	001e      	movs	r6, r3
D:\app_for_qianrushi\exam\21\Debug/srcc/printf.c:192
	int i;

	for (i = curlen; i < field_width; i++) {
    913e:	e005      	b.n	914c <printk_pad_space+0x18>
D:\app_for_qianrushi\exam\21\Debug/srcc/printf.c:193 (discriminator 3)
		printk_putc(' ', count, info);
    9140:	0032      	movs	r2, r6
    9142:	0039      	movs	r1, r7
    9144:	2020      	movs	r0, #32
    9146:	f7ff ff8f 	bl	9068 <printk_putc>
D:\app_for_qianrushi\exam\21\Debug/srcc/printf.c:192 (discriminator 3)
	for (i = curlen; i < field_width; i++) {
    914a:	3401      	adds	r4, #1
D:\app_for_qianrushi\exam\21\Debug/srcc/printf.c:192 (discriminator 1)
    914c:	42ac      	cmp	r4, r5
    914e:	dbf7      	blt.n	9140 <printk_pad_space+0xc>
D:\app_for_qianrushi\exam\21\Debug/srcc/printf.c:195
	}
}
    9150:	bdf8      	pop	{r3, r4, r5, r6, r7, pc}

00009152 <out_char>:
out_char():
D:\app_for_qianrushi\exam\21\Debug/srcc/printf.c:17
void out_char(char data) {
    9152:	b510      	push	{r4, lr}
D:\app_for_qianrushi\exam\21\Debug/srcc/printf.c:18
	uart_send1(UART_printf, data);
    9154:	b2c1      	uxtb	r1, r0
    9156:	2002      	movs	r0, #2
    9158:	f7ff fbe0 	bl	891c <uart_send1>
D:\app_for_qianrushi\exam\21\Debug/srcc/printf.c:19
}
    915c:	bd10      	pop	{r4, pc}
	...

00009160 <printk_mkfloatstr>:
printk_mkfloatstr():
D:\app_for_qianrushi\exam\21\Debug/srcc/printf.c:47
{
    9160:	b5f0      	push	{r4, r5, r6, r7, lr}
    9162:	46d6      	mov	lr, sl
    9164:	464f      	mov	r7, r9
    9166:	b580      	push	{r7, lr}
    9168:	b09b      	sub	sp, #108	; 0x6c
    916a:	0004      	movs	r4, r0
    916c:	4689      	mov	r9, r1
    916e:	0015      	movs	r5, r2
D:\app_for_qianrushi\exam\21\Debug/srcc/printf.c:48
	uint32_t p,i,j,k,a[5]={0},b[19]={0};
    9170:	2214      	movs	r2, #20
    9172:	2100      	movs	r1, #0
    9174:	a815      	add	r0, sp, #84	; 0x54
    9176:	f000 fb82 	bl	987e <memset>
    917a:	224c      	movs	r2, #76	; 0x4c
    917c:	2100      	movs	r1, #0
    917e:	a802      	add	r0, sp, #8
    9180:	f000 fb7d 	bl	987e <memset>
D:\app_for_qianrushi\exam\21\Debug/srcc/printf.c:55
	p=(uint32_t)*f;//整数部分
    9184:	6826      	ldr	r6, [r4, #0]
    9186:	6867      	ldr	r7, [r4, #4]
    9188:	0030      	movs	r0, r6
    918a:	0039      	movs	r1, r7
    918c:	f7fd ff60 	bl	7050 <__aeabi_d2uiz>
    9190:	4682      	mov	sl, r0
D:\app_for_qianrushi\exam\21\Debug/srcc/printf.c:56
	tempf=(*f-p);
    9192:	f7fe ff53 	bl	803c <__aeabi_ui2d>
    9196:	0002      	movs	r2, r0
    9198:	000b      	movs	r3, r1
    919a:	0030      	movs	r0, r6
    919c:	0039      	movs	r1, r7
    919e:	f7fe fbcf 	bl	7940 <__aeabi_dsub>
    91a2:	0006      	movs	r6, r0
    91a4:	000f      	movs	r7, r1
D:\app_for_qianrushi\exam\21\Debug/srcc/printf.c:57
	if(precision_width==0)
    91a6:	2d00      	cmp	r5, #0
    91a8:	d10e      	bne.n	91c8 <printk_mkfloatstr+0x68>
D:\app_for_qianrushi\exam\21\Debug/srcc/printf.c:58
	q=(*f-p)*100000000000000000;//小数部分
    91aa:	4a4b      	ldr	r2, [pc, #300]	; (92d8 <printk_mkfloatstr+0x178>)
    91ac:	4b4b      	ldr	r3, [pc, #300]	; (92dc <printk_mkfloatstr+0x17c>)
    91ae:	f7fe f955 	bl	745c <__aeabi_dmul>
    91b2:	f7fd ff6b 	bl	708c <__aeabi_d2ulz>
    91b6:	0004      	movs	r4, r0
    91b8:	9101      	str	r1, [sp, #4]
D:\app_for_qianrushi\exam\21\Debug/srcc/printf.c:66
	k=0;
    91ba:	2500      	movs	r5, #0
D:\app_for_qianrushi\exam\21\Debug/srcc/printf.c:67
	while(m<1)
    91bc:	e015      	b.n	91ea <printk_mkfloatstr+0x8a>
D:\app_for_qianrushi\exam\21\Debug/srcc/printf.c:62
		tempf*=10;
    91be:	2200      	movs	r2, #0
    91c0:	4b47      	ldr	r3, [pc, #284]	; (92e0 <printk_mkfloatstr+0x180>)
    91c2:	f7fe f94b 	bl	745c <__aeabi_dmul>
D:\app_for_qianrushi\exam\21\Debug/srcc/printf.c:61
		while(precision_width--)
    91c6:	0025      	movs	r5, r4
    91c8:	1e6c      	subs	r4, r5, #1
    91ca:	2d00      	cmp	r5, #0
    91cc:	d1f7      	bne.n	91be <printk_mkfloatstr+0x5e>
D:\app_for_qianrushi\exam\21\Debug/srcc/printf.c:63
		q=tempf;
    91ce:	f7fd ff5d 	bl	708c <__aeabi_d2ulz>
    91d2:	0004      	movs	r4, r0
    91d4:	9101      	str	r1, [sp, #4]
    91d6:	e7f0      	b.n	91ba <printk_mkfloatstr+0x5a>
D:\app_for_qianrushi\exam\21\Debug/srcc/printf.c:69
		m=m*10;
    91d8:	2200      	movs	r2, #0
    91da:	4b41      	ldr	r3, [pc, #260]	; (92e0 <printk_mkfloatstr+0x180>)
    91dc:	0030      	movs	r0, r6
    91de:	0039      	movs	r1, r7
    91e0:	f7fe f93c 	bl	745c <__aeabi_dmul>
    91e4:	0006      	movs	r6, r0
    91e6:	000f      	movs	r7, r1
D:\app_for_qianrushi\exam\21\Debug/srcc/printf.c:70
		k++;
    91e8:	3501      	adds	r5, #1
D:\app_for_qianrushi\exam\21\Debug/srcc/printf.c:67
	while(m<1)
    91ea:	2200      	movs	r2, #0
    91ec:	4b3d      	ldr	r3, [pc, #244]	; (92e4 <printk_mkfloatstr+0x184>)
    91ee:	0030      	movs	r0, r6
    91f0:	0039      	movs	r1, r7
    91f2:	f7fd fee5 	bl	6fc0 <__aeabi_dcmplt>
    91f6:	2800      	cmp	r0, #0
    91f8:	d1ee      	bne.n	91d8 <printk_mkfloatstr+0x78>
D:\app_for_qianrushi\exam\21\Debug/srcc/printf.c:72
	k--;          //记录小数点后到第一位不为零的小数之前 有多少个0.
    91fa:	1e6f      	subs	r7, r5, #1
D:\app_for_qianrushi\exam\21\Debug/srcc/printf.c:75
	if(0==p)     //整数部分为0
    91fc:	4653      	mov	r3, sl
    91fe:	2b00      	cmp	r3, #0
    9200:	d121      	bne.n	9246 <printk_mkfloatstr+0xe6>
D:\app_for_qianrushi\exam\21\Debug/srcc/printf.c:76
		c[i++]='0';
    9202:	3330      	adds	r3, #48	; 0x30
    9204:	464a      	mov	r2, r9
    9206:	7013      	strb	r3, [r2, #0]
    9208:	3b2f      	subs	r3, #47	; 0x2f
    920a:	469a      	mov	sl, r3
D:\app_for_qianrushi\exam\21\Debug/srcc/printf.c:91
	c[i++]='.';     //小数点
    920c:	4653      	mov	r3, sl
    920e:	1c5d      	adds	r5, r3, #1
    9210:	232e      	movs	r3, #46	; 0x2e
    9212:	464a      	mov	r2, r9
    9214:	4651      	mov	r1, sl
    9216:	5453      	strb	r3, [r2, r1]
D:\app_for_qianrushi\exam\21\Debug/srcc/printf.c:92
	if(0==q)        //小数部分为0
    9218:	9b01      	ldr	r3, [sp, #4]
    921a:	4323      	orrs	r3, r4
    921c:	d023      	beq.n	9266 <printk_mkfloatstr+0x106>
D:\app_for_qianrushi\exam\21\Debug/srcc/printf.c:96
		j=0;
    921e:	2600      	movs	r6, #0
    9220:	e039      	b.n	9296 <printk_mkfloatstr+0x136>
D:\app_for_qianrushi\exam\21\Debug/srcc/printf.c:82
			a[j++]=p%10;
    9222:	1c75      	adds	r5, r6, #1
    9224:	210a      	movs	r1, #10
    9226:	4650      	mov	r0, sl
    9228:	f7fd fdc4 	bl	6db4 <__aeabi_uidivmod>
    922c:	00b6      	lsls	r6, r6, #2
    922e:	ab15      	add	r3, sp, #84	; 0x54
    9230:	50f1      	str	r1, [r6, r3]
D:\app_for_qianrushi\exam\21\Debug/srcc/printf.c:83
			p/=10;
    9232:	210a      	movs	r1, #10
    9234:	4650      	mov	r0, sl
    9236:	f7fd fd37 	bl	6ca8 <__udivsi3>
    923a:	4682      	mov	sl, r0
D:\app_for_qianrushi\exam\21\Debug/srcc/printf.c:82
			a[j++]=p%10;
    923c:	002e      	movs	r6, r5
D:\app_for_qianrushi\exam\21\Debug/srcc/printf.c:80
		while(p!=0)//倒序的数字
    923e:	4653      	mov	r3, sl
    9240:	2b00      	cmp	r3, #0
    9242:	d1ee      	bne.n	9222 <printk_mkfloatstr+0xc2>
    9244:	e00c      	b.n	9260 <printk_mkfloatstr+0x100>
D:\app_for_qianrushi\exam\21\Debug/srcc/printf.c:79
		j=0;
    9246:	2600      	movs	r6, #0
    9248:	e7f9      	b.n	923e <printk_mkfloatstr+0xde>
D:\app_for_qianrushi\exam\21\Debug/srcc/printf.c:87
			c[i++]=a[j-1]+'0';
    924a:	3e01      	subs	r6, #1
    924c:	00b2      	lsls	r2, r6, #2
    924e:	ab15      	add	r3, sp, #84	; 0x54
    9250:	58d3      	ldr	r3, [r2, r3]
    9252:	3330      	adds	r3, #48	; 0x30
    9254:	464a      	mov	r2, r9
    9256:	4651      	mov	r1, sl
    9258:	5453      	strb	r3, [r2, r1]
    925a:	2301      	movs	r3, #1
    925c:	469c      	mov	ip, r3
    925e:	44e2      	add	sl, ip
D:\app_for_qianrushi\exam\21\Debug/srcc/printf.c:85
		while(j>0)//将倒序数字转为正序，并转换为对应的字符形式
    9260:	2e00      	cmp	r6, #0
    9262:	d1f2      	bne.n	924a <printk_mkfloatstr+0xea>
    9264:	e7d2      	b.n	920c <printk_mkfloatstr+0xac>
D:\app_for_qianrushi\exam\21\Debug/srcc/printf.c:93
		c[i++]='0';
    9266:	3330      	adds	r3, #48	; 0x30
    9268:	5553      	strb	r3, [r2, r5]
    926a:	3501      	adds	r5, #1
    926c:	e02a      	b.n	92c4 <printk_mkfloatstr+0x164>
D:\app_for_qianrushi\exam\21\Debug/srcc/printf.c:100
			b[j++]=q%10;
    926e:	220a      	movs	r2, #10
    9270:	2300      	movs	r3, #0
    9272:	0020      	movs	r0, r4
    9274:	9901      	ldr	r1, [sp, #4]
    9276:	f7fd fecb 	bl	7010 <__aeabi_uldivmod>
    927a:	1c73      	adds	r3, r6, #1
    927c:	469a      	mov	sl, r3
    927e:	00b6      	lsls	r6, r6, #2
    9280:	ab02      	add	r3, sp, #8
    9282:	50f2      	str	r2, [r6, r3]
D:\app_for_qianrushi\exam\21\Debug/srcc/printf.c:101
			q/=10;
    9284:	220a      	movs	r2, #10
    9286:	2300      	movs	r3, #0
    9288:	0020      	movs	r0, r4
    928a:	9901      	ldr	r1, [sp, #4]
    928c:	f7fd fec0 	bl	7010 <__aeabi_uldivmod>
    9290:	0004      	movs	r4, r0
    9292:	9101      	str	r1, [sp, #4]
D:\app_for_qianrushi\exam\21\Debug/srcc/printf.c:100
			b[j++]=q%10;
    9294:	4656      	mov	r6, sl
D:\app_for_qianrushi\exam\21\Debug/srcc/printf.c:98
		while(q!=0)//倒序的数字
    9296:	9b01      	ldr	r3, [sp, #4]
    9298:	4323      	orrs	r3, r4
    929a:	d1e8      	bne.n	926e <printk_mkfloatstr+0x10e>
    929c:	e005      	b.n	92aa <printk_mkfloatstr+0x14a>
D:\app_for_qianrushi\exam\21\Debug/srcc/printf.c:105
			b[j++]=0;
    929e:	00b3      	lsls	r3, r6, #2
    92a0:	2200      	movs	r2, #0
    92a2:	a902      	add	r1, sp, #8
    92a4:	505a      	str	r2, [r3, r1]
D:\app_for_qianrushi\exam\21\Debug/srcc/printf.c:106
			k--;
    92a6:	3f01      	subs	r7, #1
D:\app_for_qianrushi\exam\21\Debug/srcc/printf.c:105
			b[j++]=0;
    92a8:	3601      	adds	r6, #1
D:\app_for_qianrushi\exam\21\Debug/srcc/printf.c:103
		while(k!=0)
    92aa:	2f00      	cmp	r7, #0
    92ac:	d1f7      	bne.n	929e <printk_mkfloatstr+0x13e>
    92ae:	e007      	b.n	92c0 <printk_mkfloatstr+0x160>
D:\app_for_qianrushi\exam\21\Debug/srcc/printf.c:110
			c[i++]=b[j-1]+'0';
    92b0:	3e01      	subs	r6, #1
    92b2:	00b3      	lsls	r3, r6, #2
    92b4:	aa02      	add	r2, sp, #8
    92b6:	589b      	ldr	r3, [r3, r2]
    92b8:	3330      	adds	r3, #48	; 0x30
    92ba:	464a      	mov	r2, r9
    92bc:	5553      	strb	r3, [r2, r5]
    92be:	3501      	adds	r5, #1
D:\app_for_qianrushi\exam\21\Debug/srcc/printf.c:108
		while(j>0)//将倒序数字转为正序，并转换为对应的字符形式
    92c0:	2e00      	cmp	r6, #0
    92c2:	d1f5      	bne.n	92b0 <printk_mkfloatstr+0x150>
D:\app_for_qianrushi\exam\21\Debug/srcc/printf.c:114
	c[i]='\0';
    92c4:	464b      	mov	r3, r9
    92c6:	195b      	adds	r3, r3, r5
    92c8:	2200      	movs	r2, #0
    92ca:	701a      	strb	r2, [r3, #0]
D:\app_for_qianrushi\exam\21\Debug/srcc/printf.c:116
}
    92cc:	0028      	movs	r0, r5
    92ce:	b01b      	add	sp, #108	; 0x6c
    92d0:	bc0c      	pop	{r2, r3}
    92d2:	4691      	mov	r9, r2
    92d4:	469a      	mov	sl, r3
    92d6:	bdf0      	pop	{r4, r5, r6, r7, pc}
    92d8:	85d8a000 	.word	0x85d8a000
    92dc:	43763457 	.word	0x43763457
    92e0:	40240000 	.word	0x40240000
    92e4:	3ff00000 	.word	0x3ff00000

000092e8 <printk>:
printk():
D:\app_for_qianrushi\exam\21\Debug/srcc/printf.c:204
//       fmt:输出格式信息
//       ap:va_list指针指向格式信息输出
//函数返回：无
//======================================================================
int printk(PRINTK_INFO *info, const char *fmt, char * ap)
{
    92e8:	b5f0      	push	{r4, r5, r6, r7, lr}
    92ea:	46de      	mov	lr, fp
    92ec:	4657      	mov	r7, sl
    92ee:	464e      	mov	r6, r9
    92f0:	4645      	mov	r5, r8
    92f2:	b5e0      	push	{r5, r6, r7, lr}
    92f4:	b095      	sub	sp, #84	; 0x54
    92f6:	9000      	str	r0, [sp, #0]
    92f8:	000d      	movs	r5, r1
    92fa:	4690      	mov	r8, r2
D:\app_for_qianrushi\exam\21\Debug/srcc/printf.c:228

	}un1;*/
	char *p;
	int c;
	//char temp1;
	char vstr[33]={'0'};
    92fc:	ac0b      	add	r4, sp, #44	; 0x2c
    92fe:	2221      	movs	r2, #33	; 0x21
    9300:	2100      	movs	r1, #0
    9302:	0020      	movs	r0, r4
    9304:	f000 fabb 	bl	987e <memset>
    9308:	2330      	movs	r3, #48	; 0x30
    930a:	7023      	strb	r3, [r4, #0]
D:\app_for_qianrushi\exam\21\Debug/srcc/printf.c:249
	int *ivalp;
	char *sval;
	int cval;
	unsigned int uval;

	count = 0;
    930c:	2300      	movs	r3, #0
    930e:	930a      	str	r3, [sp, #40]	; 0x28
D:\app_for_qianrushi\exam\21\Debug/srcc/printf.c:251
	length_modifier=0;
	precision_used=TRUE;
    9310:	3301      	adds	r3, #1
    9312:	9301      	str	r3, [sp, #4]
D:\app_for_qianrushi\exam\21\Debug/srcc/printf.c:250
	length_modifier=0;
    9314:	2300      	movs	r3, #0
    9316:	469a      	mov	sl, r3
D:\app_for_qianrushi\exam\21\Debug/srcc/printf.c:253
	//从格式字符串第一个字符开始格式化输出数据
	for (p = (char *) fmt; (c = *p) != 0; p++)
    9318:	e00b      	b.n	9332 <printk+0x4a>
D:\app_for_qianrushi\exam\21\Debug/srcc/printf.c:265
			if (c != '\n') {
				printk_putc(c, &count, info);
			}
			//输出换行符
			else {
				printk_putc(0x0D /* CR */, &count, info);
    931a:	9c00      	ldr	r4, [sp, #0]
    931c:	0022      	movs	r2, r4
    931e:	a90a      	add	r1, sp, #40	; 0x28
    9320:	200d      	movs	r0, #13
    9322:	f7ff fea1 	bl	9068 <printk_putc>
D:\app_for_qianrushi\exam\21\Debug/srcc/printf.c:266
				printk_putc(0x0A /* LF */, &count, info);
    9326:	0022      	movs	r2, r4
    9328:	a90a      	add	r1, sp, #40	; 0x28
    932a:	200a      	movs	r0, #10
    932c:	f7ff fe9c 	bl	9068 <printk_putc>
D:\app_for_qianrushi\exam\21\Debug/srcc/printf.c:253 (discriminator 2)
	for (p = (char *) fmt; (c = *p) != 0; p++)
    9330:	3501      	adds	r5, #1
D:\app_for_qianrushi\exam\21\Debug/srcc/printf.c:253 (discriminator 1)
    9332:	2000      	movs	r0, #0
    9334:	5628      	ldrsb	r0, [r5, r0]
    9336:	2800      	cmp	r0, #0
    9338:	d100      	bne.n	933c <printk+0x54>
    933a:	e27c      	b.n	9836 <printk+0x54e>
D:\app_for_qianrushi\exam\21\Debug/srcc/printf.c:256
		if (c != '%')
    933c:	2825      	cmp	r0, #37	; 0x25
    933e:	d022      	beq.n	9386 <printk+0x9e>
D:\app_for_qianrushi\exam\21\Debug/srcc/printf.c:260
			if (c != '\n') {
    9340:	280a      	cmp	r0, #10
    9342:	d0ea      	beq.n	931a <printk+0x32>
D:\app_for_qianrushi\exam\21\Debug/srcc/printf.c:261
				printk_putc(c, &count, info);
    9344:	9a00      	ldr	r2, [sp, #0]
    9346:	a90a      	add	r1, sp, #40	; 0x28
    9348:	f7ff fe8e 	bl	9068 <printk_putc>
    934c:	e7f0      	b.n	9330 <printk+0x48>
D:\app_for_qianrushi\exam\21\Debug/srcc/printf.c:283
		flags_used = 0;
		done = FALSE;
		while (!done) {
			switch (/* c = */*++p) {
			case '-':
				flags_used |= FLAGS_MINUS;
    934e:	2301      	movs	r3, #1
    9350:	431e      	orrs	r6, r3
D:\app_for_qianrushi\exam\21\Debug/srcc/printf.c:204
{
    9352:	0005      	movs	r5, r0
D:\app_for_qianrushi\exam\21\Debug/srcc/printf.c:280
		while (!done) {
    9354:	2900      	cmp	r1, #0
    9356:	d11b      	bne.n	9390 <printk+0xa8>
D:\app_for_qianrushi\exam\21\Debug/srcc/printf.c:281
			switch (/* c = */*++p) {
    9358:	1c68      	adds	r0, r5, #1
    935a:	2301      	movs	r3, #1
    935c:	56eb      	ldrsb	r3, [r5, r3]
    935e:	3b20      	subs	r3, #32
    9360:	b2da      	uxtb	r2, r3
    9362:	2a10      	cmp	r2, #16
    9364:	d812      	bhi.n	938c <printk+0xa4>
    9366:	0093      	lsls	r3, r2, #2
    9368:	4abe      	ldr	r2, [pc, #760]	; (9664 <printk+0x37c>)
    936a:	58d3      	ldr	r3, [r2, r3]
    936c:	469f      	mov	pc, r3
D:\app_for_qianrushi\exam\21\Debug/srcc/printf.c:286
				break;
			case '+':
				flags_used |= FLAGS_PLUS;
    936e:	2302      	movs	r3, #2
    9370:	431e      	orrs	r6, r3
D:\app_for_qianrushi\exam\21\Debug/srcc/printf.c:287
				break;
    9372:	e7ee      	b.n	9352 <printk+0x6a>
D:\app_for_qianrushi\exam\21\Debug/srcc/printf.c:289
			case ' ':
				flags_used |= FLAGS_SPACE;
    9374:	2304      	movs	r3, #4
    9376:	431e      	orrs	r6, r3
D:\app_for_qianrushi\exam\21\Debug/srcc/printf.c:290
				break;
    9378:	e7eb      	b.n	9352 <printk+0x6a>
D:\app_for_qianrushi\exam\21\Debug/srcc/printf.c:292
			case '0':
				flags_used |= FLAGS_ZERO;
    937a:	2308      	movs	r3, #8
    937c:	431e      	orrs	r6, r3
D:\app_for_qianrushi\exam\21\Debug/srcc/printf.c:293
				break;
    937e:	e7e8      	b.n	9352 <printk+0x6a>
D:\app_for_qianrushi\exam\21\Debug/srcc/printf.c:295
			case '#':
				flags_used |= FLAGS_POUND;
    9380:	2310      	movs	r3, #16
    9382:	431e      	orrs	r6, r3
D:\app_for_qianrushi\exam\21\Debug/srcc/printf.c:296
				break;
    9384:	e7e5      	b.n	9352 <printk+0x6a>
D:\app_for_qianrushi\exam\21\Debug/srcc/printf.c:278
		flags_used = 0;
    9386:	2600      	movs	r6, #0
D:\app_for_qianrushi\exam\21\Debug/srcc/printf.c:279
		done = FALSE;
    9388:	2100      	movs	r1, #0
    938a:	e7e3      	b.n	9354 <printk+0x6c>
D:\app_for_qianrushi\exam\21\Debug/srcc/printf.c:300
			default:
				/* we've gone one char too far */
				--p;
				done = TRUE;
    938c:	2101      	movs	r1, #1
    938e:	e7e1      	b.n	9354 <printk+0x6c>
D:\app_for_qianrushi\exam\21\Debug/srcc/printf.c:307
			}
		}


		//检查%后再下一个字符 确定输出长度
		field_width = 0;
    9390:	2400      	movs	r4, #0
D:\app_for_qianrushi\exam\21\Debug/srcc/printf.c:308
		done = FALSE;
    9392:	2300      	movs	r3, #0
    9394:	001f      	movs	r7, r3
    9396:	e000      	b.n	939a <printk+0xb2>
D:\app_for_qianrushi\exam\21\Debug/srcc/printf.c:326
				field_width = (field_width * 10) + (c - '0');
				break;
			default:
				/* we've gone one char too far */
				--p;
				done = TRUE;
    9398:	000f      	movs	r7, r1
D:\app_for_qianrushi\exam\21\Debug/srcc/printf.c:309
		while (!done) {
    939a:	2f00      	cmp	r7, #0
    939c:	d10e      	bne.n	93bc <printk+0xd4>
D:\app_for_qianrushi\exam\21\Debug/srcc/printf.c:310
			switch (c = *++p) {
    939e:	1c68      	adds	r0, r5, #1
    93a0:	2301      	movs	r3, #1
    93a2:	56eb      	ldrsb	r3, [r5, r3]
    93a4:	001a      	movs	r2, r3
    93a6:	3a30      	subs	r2, #48	; 0x30
    93a8:	b2d2      	uxtb	r2, r2
    93aa:	2a09      	cmp	r2, #9
    93ac:	d8f4      	bhi.n	9398 <printk+0xb0>
D:\app_for_qianrushi\exam\21\Debug/srcc/printf.c:321
				field_width = (field_width * 10) + (c - '0');
    93ae:	00a2      	lsls	r2, r4, #2
    93b0:	1912      	adds	r2, r2, r4
    93b2:	0054      	lsls	r4, r2, #1
    93b4:	3b30      	subs	r3, #48	; 0x30
    93b6:	18e4      	adds	r4, r4, r3
D:\app_for_qianrushi\exam\21\Debug/srcc/printf.c:310
			switch (c = *++p) {
    93b8:	0005      	movs	r5, r0
D:\app_for_qianrushi\exam\21\Debug/srcc/printf.c:322
				break;
    93ba:	e7ee      	b.n	939a <printk+0xb2>
    93bc:	46bb      	mov	fp, r7
D:\app_for_qianrushi\exam\21\Debug/srcc/printf.c:331
				break;
			}
		}
		//此时字符为%看是否有.输入
		if (/* (c = *++p) */*++p == '.') {
    93be:	1c6f      	adds	r7, r5, #1
    93c0:	2301      	movs	r3, #1
    93c2:	56eb      	ldrsb	r3, [r5, r3]
    93c4:	2b2e      	cmp	r3, #46	; 0x2e
    93c6:	d019      	beq.n	93fc <printk+0x114>
D:\app_for_qianrushi\exam\21\Debug/srcc/printf.c:368
		} else {
			/* we've gone one char too far */
			--p;
#if 1
			precision_used = FALSE;
			precision_width = 0;
    93c8:	2300      	movs	r3, #0
    93ca:	4699      	mov	r9, r3
D:\app_for_qianrushi\exam\21\Debug/srcc/printf.c:367
			precision_used = FALSE;
    93cc:	9301      	str	r3, [sp, #4]
D:\app_for_qianrushi\exam\21\Debug/srcc/printf.c:372
#endif
		}
		//判断 输出的是否有lf、LF等
		switch (/* c = */*++p) {
    93ce:	1c6b      	adds	r3, r5, #1
    93d0:	2201      	movs	r2, #1
    93d2:	56aa      	ldrsb	r2, [r5, r2]
    93d4:	2a68      	cmp	r2, #104	; 0x68
    93d6:	d004      	beq.n	93e2 <printk+0xfa>
    93d8:	2a6c      	cmp	r2, #108	; 0x6c
    93da:	d027      	beq.n	942c <printk+0x144>
    93dc:	2a4c      	cmp	r2, #76	; 0x4c
    93de:	d02a      	beq.n	9436 <printk+0x14e>
D:\app_for_qianrushi\exam\21\Debug/srcc/printf.c:384
		case 'L':
			 length_modifier |= LENMOD_L;
			break;
		default:
			/* we've gone one char too far */
			--p;
    93e0:	002b      	movs	r3, r5
D:\app_for_qianrushi\exam\21\Debug/srcc/printf.c:389
			break;
		}

		//p为格式字符串的首地址
		switch (c = *++p) {
    93e2:	1c5d      	adds	r5, r3, #1
    93e4:	2001      	movs	r0, #1
    93e6:	5618      	ldrsb	r0, [r3, r0]
    93e8:	0003      	movs	r3, r0
    93ea:	3b58      	subs	r3, #88	; 0x58
    93ec:	b2da      	uxtb	r2, r3
    93ee:	2a20      	cmp	r2, #32
    93f0:	d900      	bls.n	93f4 <printk+0x10c>
    93f2:	e218      	b.n	9826 <printk+0x53e>
    93f4:	0093      	lsls	r3, r2, #2
    93f6:	4a9c      	ldr	r2, [pc, #624]	; (9668 <printk+0x380>)
    93f8:	58d3      	ldr	r3, [r2, r3]
    93fa:	469f      	mov	pc, r3
D:\app_for_qianrushi\exam\21\Debug/srcc/printf.c:337
			precision_width = 0;
    93fc:	2300      	movs	r3, #0
D:\app_for_qianrushi\exam\21\Debug/srcc/printf.c:338
			done = FALSE;
    93fe:	2000      	movs	r0, #0
    9400:	e000      	b.n	9404 <printk+0x11c>
D:\app_for_qianrushi\exam\21\Debug/srcc/printf.c:359
					done = TRUE;
    9402:	4658      	mov	r0, fp
D:\app_for_qianrushi\exam\21\Debug/srcc/printf.c:339
			while (!done) {
    9404:	2800      	cmp	r0, #0
    9406:	d10e      	bne.n	9426 <printk+0x13e>
D:\app_for_qianrushi\exam\21\Debug/srcc/printf.c:340
				switch ( c = *++p) {
    9408:	1c7d      	adds	r5, r7, #1
    940a:	2201      	movs	r2, #1
    940c:	56ba      	ldrsb	r2, [r7, r2]
    940e:	0011      	movs	r1, r2
    9410:	3930      	subs	r1, #48	; 0x30
    9412:	b2c9      	uxtb	r1, r1
    9414:	2909      	cmp	r1, #9
    9416:	d8f4      	bhi.n	9402 <printk+0x11a>
D:\app_for_qianrushi\exam\21\Debug/srcc/printf.c:352
				precision_width = (precision_width * 10) +	(c - '0');
    9418:	0099      	lsls	r1, r3, #2
    941a:	18c9      	adds	r1, r1, r3
    941c:	004b      	lsls	r3, r1, #1
    941e:	3a30      	subs	r2, #48	; 0x30
    9420:	189b      	adds	r3, r3, r2
D:\app_for_qianrushi\exam\21\Debug/srcc/printf.c:340
				switch ( c = *++p) {
    9422:	002f      	movs	r7, r5
D:\app_for_qianrushi\exam\21\Debug/srcc/printf.c:355
					break;
    9424:	e7ee      	b.n	9404 <printk+0x11c>
    9426:	4699      	mov	r9, r3
    9428:	003d      	movs	r5, r7
    942a:	e7d0      	b.n	93ce <printk+0xe6>
D:\app_for_qianrushi\exam\21\Debug/srcc/printf.c:377
			 length_modifier |= LENMOD_l;
    942c:	2201      	movs	r2, #1
    942e:	4651      	mov	r1, sl
    9430:	4311      	orrs	r1, r2
    9432:	468a      	mov	sl, r1
D:\app_for_qianrushi\exam\21\Debug/srcc/printf.c:378
			break;
    9434:	e7d5      	b.n	93e2 <printk+0xfa>
D:\app_for_qianrushi\exam\21\Debug/srcc/printf.c:380
			 length_modifier |= LENMOD_L;
    9436:	2202      	movs	r2, #2
    9438:	4651      	mov	r1, sl
    943a:	4311      	orrs	r1, r2
    943c:	468a      	mov	sl, r1
D:\app_for_qianrushi\exam\21\Debug/srcc/printf.c:381
			break;
    943e:	e7d0      	b.n	93e2 <printk+0xfa>
D:\app_for_qianrushi\exam\21\Debug/srcc/printf.c:394
		case 'd':
		case 'i':
			//此时ap为指向可变参数列表的第一个参数
			//返回当前参数，并将ap指向下一个参数
			ival = (int) va_arg(ap, int);  
    9440:	4643      	mov	r3, r8
    9442:	3304      	adds	r3, #4
    9444:	9302      	str	r3, [sp, #8]
    9446:	4643      	mov	r3, r8
    9448:	681b      	ldr	r3, [r3, #0]
    944a:	9309      	str	r3, [sp, #36]	; 0x24
D:\app_for_qianrushi\exam\21\Debug/srcc/printf.c:396
			//将整型转换成字符型保存在vstr中，返回字符数vlen
			vlen = printk_mknumstr(vstr, &ival, TRUE, 10);
    944c:	230a      	movs	r3, #10
    944e:	2201      	movs	r2, #1
    9450:	a909      	add	r1, sp, #36	; 0x24
    9452:	a80b      	add	r0, sp, #44	; 0x2c
    9454:	f7ff fe1d 	bl	9092 <printk_mknumstr>
    9458:	4681      	mov	r9, r0
D:\app_for_qianrushi\exam\21\Debug/srcc/printf.c:398
			//指向转换后的最后一个字符
			vstrp = &vstr[vlen];  
    945a:	af0b      	add	r7, sp, #44	; 0x2c
    945c:	444f      	add	r7, r9
D:\app_for_qianrushi\exam\21\Debug/srcc/printf.c:401

			//若参数小于0，添加'-'号，并将字符长度加1
			if (ival < 0) {
    945e:	9b09      	ldr	r3, [sp, #36]	; 0x24
    9460:	2b00      	cmp	r3, #0
    9462:	db07      	blt.n	9474 <printk+0x18c>
D:\app_for_qianrushi\exam\21\Debug/srcc/printf.c:407
				schar = '-';
				++vlen;
			}
			//若参数不小于0，添加‘+’号或者‘ ’或者为0，并将字符长度加1
			else {
				if (IS_FLAG_PLUS(flags_used)) {
    9464:	07b3      	lsls	r3, r6, #30
    9466:	d519      	bpl.n	949c <printk+0x1b4>
D:\app_for_qianrushi\exam\21\Debug/srcc/printf.c:409
					schar = '+';
					++vlen;
    9468:	2301      	movs	r3, #1
    946a:	469c      	mov	ip, r3
    946c:	44e1      	add	r9, ip
D:\app_for_qianrushi\exam\21\Debug/srcc/printf.c:408
					schar = '+';
    946e:	332a      	adds	r3, #42	; 0x2a
    9470:	4698      	mov	r8, r3
    9472:	e004      	b.n	947e <printk+0x196>
D:\app_for_qianrushi\exam\21\Debug/srcc/printf.c:403
				++vlen;
    9474:	2301      	movs	r3, #1
    9476:	469c      	mov	ip, r3
    9478:	44e1      	add	r9, ip
D:\app_for_qianrushi\exam\21\Debug/srcc/printf.c:402
				schar = '-';
    947a:	332c      	adds	r3, #44	; 0x2c
    947c:	4698      	mov	r8, r3
D:\app_for_qianrushi\exam\21\Debug/srcc/printf.c:424
			dschar = FALSE;

			/*
			 * do the ZERO pad.
			 */
			if (IS_FLAG_ZERO(flags_used)) {
    947e:	0733      	lsls	r3, r6, #28
    9480:	d51c      	bpl.n	94bc <printk+0x1d4>
D:\app_for_qianrushi\exam\21\Debug/srcc/printf.c:425
				if (schar)
    9482:	4643      	mov	r3, r8
    9484:	2b00      	cmp	r3, #0
    9486:	d113      	bne.n	94b0 <printk+0x1c8>
D:\app_for_qianrushi\exam\21\Debug/srcc/printf.c:428
					printk_putc(schar, &count, info);  //输出符号
				dschar = TRUE;
				printk_pad_zero(vlen, field_width, &count, info);
    9488:	9b00      	ldr	r3, [sp, #0]
    948a:	aa0a      	add	r2, sp, #40	; 0x28
    948c:	0021      	movs	r1, r4
    948e:	4648      	mov	r0, r9
    9490:	f7ff fe41 	bl	9116 <printk_pad_zero>
D:\app_for_qianrushi\exam\21\Debug/srcc/printf.c:429
				vlen = field_width;
    9494:	46a1      	mov	r9, r4
D:\app_for_qianrushi\exam\21\Debug/srcc/printf.c:394
			ival = (int) va_arg(ap, int);  
    9496:	9b02      	ldr	r3, [sp, #8]
    9498:	4698      	mov	r8, r3
    949a:	e162      	b.n	9762 <printk+0x47a>
D:\app_for_qianrushi\exam\21\Debug/srcc/printf.c:411
					if (IS_FLAG_SPACE(flags_used)) {
    949c:	2304      	movs	r3, #4
    949e:	4033      	ands	r3, r6
    94a0:	4698      	mov	r8, r3
    94a2:	d0ec      	beq.n	947e <printk+0x196>
D:\app_for_qianrushi\exam\21\Debug/srcc/printf.c:413
						++vlen;
    94a4:	2301      	movs	r3, #1
    94a6:	469c      	mov	ip, r3
    94a8:	44e1      	add	r9, ip
D:\app_for_qianrushi\exam\21\Debug/srcc/printf.c:412
						schar = ' ';
    94aa:	331f      	adds	r3, #31
    94ac:	4698      	mov	r8, r3
    94ae:	e7e6      	b.n	947e <printk+0x196>
D:\app_for_qianrushi\exam\21\Debug/srcc/printf.c:426
					printk_putc(schar, &count, info);  //输出符号
    94b0:	9a00      	ldr	r2, [sp, #0]
    94b2:	a90a      	add	r1, sp, #40	; 0x28
    94b4:	4640      	mov	r0, r8
    94b6:	f7ff fdd7 	bl	9068 <printk_putc>
    94ba:	e7e5      	b.n	9488 <printk+0x1a0>
D:\app_for_qianrushi\exam\21\Debug/srcc/printf.c:431
			} else {
				if (!IS_FLAG_MINUS(flags_used)) {
    94bc:	07f3      	lsls	r3, r6, #31
    94be:	d505      	bpl.n	94cc <printk+0x1e4>
D:\app_for_qianrushi\exam\21\Debug/srcc/printf.c:442
				}
			}

			/* the string was built in reverse order, now display in */
			/* correct order */
			if (!dschar && schar) {
    94c0:	4643      	mov	r3, r8
    94c2:	2b00      	cmp	r3, #0
    94c4:	d116      	bne.n	94f4 <printk+0x20c>
D:\app_for_qianrushi\exam\21\Debug/srcc/printf.c:394
			ival = (int) va_arg(ap, int);  
    94c6:	9b02      	ldr	r3, [sp, #8]
    94c8:	4698      	mov	r8, r3
    94ca:	e14a      	b.n	9762 <printk+0x47a>
D:\app_for_qianrushi\exam\21\Debug/srcc/printf.c:432
					printk_pad_space(vlen, field_width, &count, info);  //输出空格
    94cc:	9b00      	ldr	r3, [sp, #0]
    94ce:	aa0a      	add	r2, sp, #40	; 0x28
    94d0:	0021      	movs	r1, r4
    94d2:	4648      	mov	r0, r9
    94d4:	f7ff fe2e 	bl	9134 <printk_pad_space>
D:\app_for_qianrushi\exam\21\Debug/srcc/printf.c:434
					if (schar)
    94d8:	4643      	mov	r3, r8
    94da:	2b00      	cmp	r3, #0
    94dc:	d102      	bne.n	94e4 <printk+0x1fc>
D:\app_for_qianrushi\exam\21\Debug/srcc/printf.c:394
			ival = (int) va_arg(ap, int);  
    94de:	9b02      	ldr	r3, [sp, #8]
    94e0:	4698      	mov	r8, r3
    94e2:	e13e      	b.n	9762 <printk+0x47a>
D:\app_for_qianrushi\exam\21\Debug/srcc/printf.c:435
						printk_putc(schar, &count, info);
    94e4:	9a00      	ldr	r2, [sp, #0]
    94e6:	a90a      	add	r1, sp, #40	; 0x28
    94e8:	4640      	mov	r0, r8
    94ea:	f7ff fdbd 	bl	9068 <printk_putc>
D:\app_for_qianrushi\exam\21\Debug/srcc/printf.c:394
			ival = (int) va_arg(ap, int);  
    94ee:	9b02      	ldr	r3, [sp, #8]
    94f0:	4698      	mov	r8, r3
    94f2:	e136      	b.n	9762 <printk+0x47a>
D:\app_for_qianrushi\exam\21\Debug/srcc/printf.c:443
				printk_putc(schar, &count, info);
    94f4:	9a00      	ldr	r2, [sp, #0]
    94f6:	a90a      	add	r1, sp, #40	; 0x28
    94f8:	4640      	mov	r0, r8
    94fa:	f7ff fdb5 	bl	9068 <printk_putc>
D:\app_for_qianrushi\exam\21\Debug/srcc/printf.c:394
			ival = (int) va_arg(ap, int);  
    94fe:	9b02      	ldr	r3, [sp, #8]
    9500:	4698      	mov	r8, r3
    9502:	e12e      	b.n	9762 <printk+0x47a>
D:\app_for_qianrushi\exam\21\Debug/srcc/printf.c:457
			//实际传入变参数 函数后 浮点数变为:0x6000000040091EB8 实际是将其转化为double型数据
			//但是顺序反了，我们要做的是将后四字节提前，然后把0x60移到紧接着前四个字节后的位置。
			
			//【20200816】  XSX，解决浮点数不优化问题
			ap=ap+4;
			fval= (double)va_arg(ap,double);
    9504:	230c      	movs	r3, #12
    9506:	4443      	add	r3, r8
    9508:	469b      	mov	fp, r3
    950a:	4643      	mov	r3, r8
    950c:	6859      	ldr	r1, [r3, #4]
    950e:	689f      	ldr	r7, [r3, #8]
    9510:	9102      	str	r1, [sp, #8]
    9512:	000a      	movs	r2, r1
    9514:	003b      	movs	r3, r7
    9516:	9206      	str	r2, [sp, #24]
    9518:	9307      	str	r3, [sp, #28]
D:\app_for_qianrushi\exam\21\Debug/srcc/printf.c:461
			
			//【20200816】  XSX，解决负数的浮点数输出问题
			//若参数小于0，添加'-'号，并将字符长度加1
			if (fval < 0) {
    951a:	2200      	movs	r2, #0
    951c:	2300      	movs	r3, #0
    951e:	9802      	ldr	r0, [sp, #8]
    9520:	0039      	movs	r1, r7
    9522:	f7fd fd4d 	bl	6fc0 <__aeabi_dcmplt>
    9526:	2800      	cmp	r0, #0
    9528:	d106      	bne.n	9538 <printk+0x250>
D:\app_for_qianrushi\exam\21\Debug/srcc/printf.c:468
				fval = -fval;				//负数取它的正数
				++vlen;
			}
			//若参数不小于0，添加‘+’号或者‘ ’或者为0，并将字符长度加1
			else {
				if (IS_FLAG_PLUS(flags_used)) {
    952a:	07b3      	lsls	r3, r6, #30
    952c:	d424      	bmi.n	9578 <printk+0x290>
D:\app_for_qianrushi\exam\21\Debug/srcc/printf.c:472
					schar = '+';
					++vlen;
				} else {
					if (IS_FLAG_SPACE(flags_used)) {
    952e:	2704      	movs	r7, #4
    9530:	4037      	ands	r7, r6
    9532:	d008      	beq.n	9546 <printk+0x25e>
D:\app_for_qianrushi\exam\21\Debug/srcc/printf.c:473
						schar = ' ';
    9534:	2720      	movs	r7, #32
    9536:	e006      	b.n	9546 <printk+0x25e>
D:\app_for_qianrushi\exam\21\Debug/srcc/printf.c:463
				fval = -fval;				//负数取它的正数
    9538:	9a02      	ldr	r2, [sp, #8]
    953a:	2180      	movs	r1, #128	; 0x80
    953c:	0609      	lsls	r1, r1, #24
    953e:	187b      	adds	r3, r7, r1
    9540:	9206      	str	r2, [sp, #24]
    9542:	9307      	str	r3, [sp, #28]
D:\app_for_qianrushi\exam\21\Debug/srcc/printf.c:462
				schar = '-';
    9544:	272d      	movs	r7, #45	; 0x2d
D:\app_for_qianrushi\exam\21\Debug/srcc/printf.c:483
				}
			}
			dschar = FALSE;
			
			//确定是否使用小数点精度数值
			if(precision_used)
    9546:	9b01      	ldr	r3, [sp, #4]
    9548:	2b00      	cmp	r3, #0
    954a:	d117      	bne.n	957c <printk+0x294>
D:\app_for_qianrushi\exam\21\Debug/srcc/printf.c:491
				vlen = printk_mkfloatstr(&fval,vstr,precision_width);
				vstrp = &vstr[0];  //指向转换后的第一个字符
			}
			else
			{	//浮点型精度到小数点后8位
				if(length_modifier==0)   
    954c:	4653      	mov	r3, sl
    954e:	2b00      	cmp	r3, #0
    9550:	d11b      	bne.n	958a <printk+0x2a2>
D:\app_for_qianrushi\exam\21\Debug/srcc/printf.c:493
				{	//将整型转换成字符型保存在vstr中，返回字符数vlen
					vlen = printk_mkfloatstr(&fval,vstr,8);
    9552:	2208      	movs	r2, #8
    9554:	a90b      	add	r1, sp, #44	; 0x2c
    9556:	a806      	add	r0, sp, #24
    9558:	f7ff fe02 	bl	9160 <printk_mkfloatstr>
    955c:	9002      	str	r0, [sp, #8]
D:\app_for_qianrushi\exam\21\Debug/srcc/printf.c:511
			

			/*
			 * do the ZERO pad.
			 */
			if (IS_FLAG_ZERO(flags_used)) {
    955e:	0733      	lsls	r3, r6, #28
    9560:	d520      	bpl.n	95a4 <printk+0x2bc>
D:\app_for_qianrushi\exam\21\Debug/srcc/printf.c:512
				if (schar)
    9562:	2f00      	cmp	r7, #0
    9564:	d118      	bne.n	9598 <printk+0x2b0>
D:\app_for_qianrushi\exam\21\Debug/srcc/printf.c:515
					printk_putc(schar, &count, info);  //输出符号
				dschar = TRUE;
				printk_pad_zero(vlen, field_width, &count, info);
    9566:	9b00      	ldr	r3, [sp, #0]
    9568:	aa0a      	add	r2, sp, #40	; 0x28
    956a:	0021      	movs	r1, r4
    956c:	9802      	ldr	r0, [sp, #8]
    956e:	f7ff fdd2 	bl	9116 <printk_pad_zero>
D:\app_for_qianrushi\exam\21\Debug/srcc/printf.c:516
				vlen = field_width;
    9572:	9402      	str	r4, [sp, #8]
    9574:	af0b      	add	r7, sp, #44	; 0x2c
    9576:	e032      	b.n	95de <printk+0x2f6>
D:\app_for_qianrushi\exam\21\Debug/srcc/printf.c:469
					schar = '+';
    9578:	272b      	movs	r7, #43	; 0x2b
    957a:	e7e4      	b.n	9546 <printk+0x25e>
D:\app_for_qianrushi\exam\21\Debug/srcc/printf.c:486
				vlen = printk_mkfloatstr(&fval,vstr,precision_width);
    957c:	464a      	mov	r2, r9
    957e:	a90b      	add	r1, sp, #44	; 0x2c
    9580:	a806      	add	r0, sp, #24
    9582:	f7ff fded 	bl	9160 <printk_mkfloatstr>
    9586:	9002      	str	r0, [sp, #8]
    9588:	e7e9      	b.n	955e <printk+0x276>
D:\app_for_qianrushi\exam\21\Debug/srcc/printf.c:499
					vlen = printk_mkfloatstr(&fval,vstr,precision_width);
    958a:	464a      	mov	r2, r9
    958c:	a90b      	add	r1, sp, #44	; 0x2c
    958e:	a806      	add	r0, sp, #24
    9590:	f7ff fde6 	bl	9160 <printk_mkfloatstr>
    9594:	9002      	str	r0, [sp, #8]
    9596:	e7e2      	b.n	955e <printk+0x276>
D:\app_for_qianrushi\exam\21\Debug/srcc/printf.c:513
					printk_putc(schar, &count, info);  //输出符号
    9598:	9a00      	ldr	r2, [sp, #0]
    959a:	a90a      	add	r1, sp, #40	; 0x28
    959c:	0038      	movs	r0, r7
    959e:	f7ff fd63 	bl	9068 <printk_putc>
    95a2:	e7e0      	b.n	9566 <printk+0x27e>
D:\app_for_qianrushi\exam\21\Debug/srcc/printf.c:518
			} else {
				if (!IS_FLAG_MINUS(flags_used)) {
    95a4:	07f3      	lsls	r3, r6, #31
    95a6:	d507      	bpl.n	95b8 <printk+0x2d0>
D:\app_for_qianrushi\exam\21\Debug/srcc/printf.c:529
				}
			}

			/* the string was built in reverse order, now display in */
			/* correct order */
			if (!dschar && schar) {
    95a8:	2f00      	cmp	r7, #0
    95aa:	d0e3      	beq.n	9574 <printk+0x28c>
D:\app_for_qianrushi\exam\21\Debug/srcc/printf.c:530
				printk_putc(schar, &count, info);
    95ac:	9a00      	ldr	r2, [sp, #0]
    95ae:	a90a      	add	r1, sp, #40	; 0x28
    95b0:	0038      	movs	r0, r7
    95b2:	f7ff fd59 	bl	9068 <printk_putc>
    95b6:	e7dd      	b.n	9574 <printk+0x28c>
D:\app_for_qianrushi\exam\21\Debug/srcc/printf.c:519
					printk_pad_space(vlen, field_width, &count, info);  //输出空格
    95b8:	9b00      	ldr	r3, [sp, #0]
    95ba:	aa0a      	add	r2, sp, #40	; 0x28
    95bc:	0021      	movs	r1, r4
    95be:	9802      	ldr	r0, [sp, #8]
    95c0:	f7ff fdb8 	bl	9134 <printk_pad_space>
D:\app_for_qianrushi\exam\21\Debug/srcc/printf.c:521
					if (schar)
    95c4:	2f00      	cmp	r7, #0
    95c6:	d0d5      	beq.n	9574 <printk+0x28c>
D:\app_for_qianrushi\exam\21\Debug/srcc/printf.c:522
						printk_putc(schar, &count, info);
    95c8:	9a00      	ldr	r2, [sp, #0]
    95ca:	a90a      	add	r1, sp, #40	; 0x28
    95cc:	0038      	movs	r0, r7
    95ce:	f7ff fd4b 	bl	9068 <printk_putc>
    95d2:	e7cf      	b.n	9574 <printk+0x28c>
D:\app_for_qianrushi\exam\21\Debug/srcc/printf.c:533
			}
			while (*vstrp)
				printk_putc(*vstrp++, &count, info);
    95d4:	3701      	adds	r7, #1
    95d6:	9a00      	ldr	r2, [sp, #0]
    95d8:	a90a      	add	r1, sp, #40	; 0x28
    95da:	f7ff fd45 	bl	9068 <printk_putc>
D:\app_for_qianrushi\exam\21\Debug/srcc/printf.c:532
			while (*vstrp)
    95de:	2000      	movs	r0, #0
    95e0:	5638      	ldrsb	r0, [r7, r0]
    95e2:	2800      	cmp	r0, #0
    95e4:	d1f6      	bne.n	95d4 <printk+0x2ec>
D:\app_for_qianrushi\exam\21\Debug/srcc/printf.c:534
			if (IS_FLAG_MINUS(flags_used)) {
    95e6:	07f3      	lsls	r3, r6, #31
    95e8:	d401      	bmi.n	95ee <printk+0x306>
D:\app_for_qianrushi\exam\21\Debug/srcc/printf.c:457
			fval= (double)va_arg(ap,double);
    95ea:	46d8      	mov	r8, fp
    95ec:	e6a0      	b.n	9330 <printk+0x48>
D:\app_for_qianrushi\exam\21\Debug/srcc/printf.c:535
				printk_pad_space(vlen, field_width, &count, info);
    95ee:	9b00      	ldr	r3, [sp, #0]
    95f0:	aa0a      	add	r2, sp, #40	; 0x28
    95f2:	0021      	movs	r1, r4
    95f4:	9802      	ldr	r0, [sp, #8]
    95f6:	f7ff fd9d 	bl	9134 <printk_pad_space>
D:\app_for_qianrushi\exam\21\Debug/srcc/printf.c:457
			fval= (double)va_arg(ap,double);
    95fa:	46d8      	mov	r8, fp
    95fc:	e698      	b.n	9330 <printk+0x48>
D:\app_for_qianrushi\exam\21\Debug/srcc/printf.c:541
			}
            break;
        //以下是16进制整形输出
		case 'x':
		case 'X':
			uval = (unsigned int) va_arg(ap, unsigned int);
    95fe:	4643      	mov	r3, r8
    9600:	3304      	adds	r3, #4
    9602:	9302      	str	r3, [sp, #8]
    9604:	4643      	mov	r3, r8
    9606:	681b      	ldr	r3, [r3, #0]
    9608:	9305      	str	r3, [sp, #20]
D:\app_for_qianrushi\exam\21\Debug/srcc/printf.c:542
			vlen = printk_mknumstr(vstr, &uval, FALSE, 16);
    960a:	2310      	movs	r3, #16
    960c:	2200      	movs	r2, #0
    960e:	a905      	add	r1, sp, #20
    9610:	a80b      	add	r0, sp, #44	; 0x2c
    9612:	f7ff fd3e 	bl	9092 <printk_mknumstr>
    9616:	4681      	mov	r9, r0
D:\app_for_qianrushi\exam\21\Debug/srcc/printf.c:543
			vstrp = &vstr[vlen];
    9618:	af0b      	add	r7, sp, #44	; 0x2c
    961a:	444f      	add	r7, r9
D:\app_for_qianrushi\exam\21\Debug/srcc/printf.c:546

			dschar = FALSE;
			if (IS_FLAG_ZERO(flags_used)) {
    961c:	2308      	movs	r3, #8
    961e:	4033      	ands	r3, r6
    9620:	4698      	mov	r8, r3
    9622:	d023      	beq.n	966c <printk+0x384>
D:\app_for_qianrushi\exam\21\Debug/srcc/printf.c:547
				if (IS_FLAG_POUND(flags_used)) {
    9624:	2310      	movs	r3, #16
    9626:	4033      	ands	r3, r6
    9628:	4698      	mov	r8, r3
    962a:	d10f      	bne.n	964c <printk+0x364>
D:\app_for_qianrushi\exam\21\Debug/srcc/printf.c:553
					printk_putc('0', &count, info);
					printk_putc('x', &count, info);
					/*vlen += 2;*/
					dschar = TRUE;
				}
				printk_pad_zero(vlen, field_width, &count, info);
    962c:	9b00      	ldr	r3, [sp, #0]
    962e:	aa0a      	add	r2, sp, #40	; 0x28
    9630:	0021      	movs	r1, r4
    9632:	4648      	mov	r0, r9
    9634:	f7ff fd6f 	bl	9116 <printk_pad_zero>
D:\app_for_qianrushi\exam\21\Debug/srcc/printf.c:554
				vlen = field_width;
    9638:	46a1      	mov	r9, r4
D:\app_for_qianrushi\exam\21\Debug/srcc/printf.c:569
						dschar = TRUE;
					}
				}
			}

			if ((IS_FLAG_POUND(flags_used)) && !dschar) {
    963a:	06f3      	lsls	r3, r6, #27
    963c:	d400      	bmi.n	9640 <printk+0x358>
    963e:	e09e      	b.n	977e <printk+0x496>
D:\app_for_qianrushi\exam\21\Debug/srcc/printf.c:569 (discriminator 1)
    9640:	4643      	mov	r3, r8
    9642:	2b00      	cmp	r3, #0
    9644:	d030      	beq.n	96a8 <printk+0x3c0>
D:\app_for_qianrushi\exam\21\Debug/srcc/printf.c:541
			uval = (unsigned int) va_arg(ap, unsigned int);
    9646:	9b02      	ldr	r3, [sp, #8]
    9648:	4698      	mov	r8, r3
    964a:	e08a      	b.n	9762 <printk+0x47a>
D:\app_for_qianrushi\exam\21\Debug/srcc/printf.c:548
					printk_putc('0', &count, info);
    964c:	9a00      	ldr	r2, [sp, #0]
    964e:	a90a      	add	r1, sp, #40	; 0x28
    9650:	2030      	movs	r0, #48	; 0x30
    9652:	f7ff fd09 	bl	9068 <printk_putc>
D:\app_for_qianrushi\exam\21\Debug/srcc/printf.c:549
					printk_putc('x', &count, info);
    9656:	9a00      	ldr	r2, [sp, #0]
    9658:	a90a      	add	r1, sp, #40	; 0x28
    965a:	2078      	movs	r0, #120	; 0x78
    965c:	f7ff fd04 	bl	9068 <printk_putc>
D:\app_for_qianrushi\exam\21\Debug/srcc/printf.c:551
					dschar = TRUE;
    9660:	46d8      	mov	r8, fp
    9662:	e7e3      	b.n	962c <printk+0x344>
    9664:	0000a010 	.word	0x0000a010
    9668:	0000a054 	.word	0x0000a054
D:\app_for_qianrushi\exam\21\Debug/srcc/printf.c:556
				if (!IS_FLAG_MINUS(flags_used)) {
    966c:	07f3      	lsls	r3, r6, #31
    966e:	d4e4      	bmi.n	963a <printk+0x352>
D:\app_for_qianrushi\exam\21\Debug/srcc/printf.c:557
					if (IS_FLAG_POUND(flags_used)) {
    9670:	2310      	movs	r3, #16
    9672:	4033      	ands	r3, r6
    9674:	4698      	mov	r8, r3
    9676:	d002      	beq.n	967e <printk+0x396>
D:\app_for_qianrushi\exam\21\Debug/srcc/printf.c:558
						vlen += 2;
    9678:	2302      	movs	r3, #2
    967a:	469c      	mov	ip, r3
    967c:	44e1      	add	r9, ip
D:\app_for_qianrushi\exam\21\Debug/srcc/printf.c:560
					printk_pad_space(vlen, field_width, &count, info);
    967e:	9b00      	ldr	r3, [sp, #0]
    9680:	aa0a      	add	r2, sp, #40	; 0x28
    9682:	0021      	movs	r1, r4
    9684:	4648      	mov	r0, r9
    9686:	f7ff fd55 	bl	9134 <printk_pad_space>
D:\app_for_qianrushi\exam\21\Debug/srcc/printf.c:561
					if (IS_FLAG_POUND(flags_used)) {
    968a:	4643      	mov	r3, r8
    968c:	2b00      	cmp	r3, #0
    968e:	d0d4      	beq.n	963a <printk+0x352>
D:\app_for_qianrushi\exam\21\Debug/srcc/printf.c:562
						printk_putc('0', &count, info);
    9690:	9a00      	ldr	r2, [sp, #0]
    9692:	a90a      	add	r1, sp, #40	; 0x28
    9694:	2030      	movs	r0, #48	; 0x30
    9696:	f7ff fce7 	bl	9068 <printk_putc>
D:\app_for_qianrushi\exam\21\Debug/srcc/printf.c:563
						printk_putc('x', &count, info);
    969a:	9a00      	ldr	r2, [sp, #0]
    969c:	a90a      	add	r1, sp, #40	; 0x28
    969e:	2078      	movs	r0, #120	; 0x78
    96a0:	f7ff fce2 	bl	9068 <printk_putc>
D:\app_for_qianrushi\exam\21\Debug/srcc/printf.c:564
						dschar = TRUE;
    96a4:	46d8      	mov	r8, fp
    96a6:	e7c8      	b.n	963a <printk+0x352>
D:\app_for_qianrushi\exam\21\Debug/srcc/printf.c:570
				printk_putc('0', &count, info);
    96a8:	9a00      	ldr	r2, [sp, #0]
    96aa:	a90a      	add	r1, sp, #40	; 0x28
    96ac:	2030      	movs	r0, #48	; 0x30
    96ae:	f7ff fcdb 	bl	9068 <printk_putc>
D:\app_for_qianrushi\exam\21\Debug/srcc/printf.c:571
				printk_putc('x', &count, info);
    96b2:	9a00      	ldr	r2, [sp, #0]
    96b4:	a90a      	add	r1, sp, #40	; 0x28
    96b6:	2078      	movs	r0, #120	; 0x78
    96b8:	f7ff fcd6 	bl	9068 <printk_putc>
D:\app_for_qianrushi\exam\21\Debug/srcc/printf.c:572
				vlen += 2;
    96bc:	2302      	movs	r3, #2
    96be:	469c      	mov	ip, r3
    96c0:	44e1      	add	r9, ip
D:\app_for_qianrushi\exam\21\Debug/srcc/printf.c:541
			uval = (unsigned int) va_arg(ap, unsigned int);
    96c2:	9b02      	ldr	r3, [sp, #8]
    96c4:	4698      	mov	r8, r3
    96c6:	e04c      	b.n	9762 <printk+0x47a>
D:\app_for_qianrushi\exam\21\Debug/srcc/printf.c:577
			}
			goto cont_xd;
		//无符号以八进制表示的整数输出
		case 'o':
			uval = (unsigned int) va_arg(ap, unsigned int);
    96c8:	4643      	mov	r3, r8
    96ca:	1d1f      	adds	r7, r3, #4
    96cc:	681b      	ldr	r3, [r3, #0]
    96ce:	9305      	str	r3, [sp, #20]
D:\app_for_qianrushi\exam\21\Debug/srcc/printf.c:578
			vlen = printk_mknumstr(vstr, &uval, FALSE, 8);
    96d0:	2308      	movs	r3, #8
    96d2:	2200      	movs	r2, #0
    96d4:	a905      	add	r1, sp, #20
    96d6:	a80b      	add	r0, sp, #44	; 0x2c
    96d8:	f7ff fcdb 	bl	9092 <printk_mknumstr>
    96dc:	4681      	mov	r9, r0
D:\app_for_qianrushi\exam\21\Debug/srcc/printf.c:577
			uval = (unsigned int) va_arg(ap, unsigned int);
    96de:	46b8      	mov	r8, r7
D:\app_for_qianrushi\exam\21\Debug/srcc/printf.c:594
			goto cont_u;
		case 'u':
			uval = (unsigned int) va_arg(ap, unsigned int);
			vlen = printk_mknumstr(vstr, &uval, FALSE, 10);

			cont_u: vstrp = &vstr[vlen];
    96e0:	af0b      	add	r7, sp, #44	; 0x2c
    96e2:	444f      	add	r7, r9
D:\app_for_qianrushi\exam\21\Debug/srcc/printf.c:596

			if (IS_FLAG_ZERO(flags_used)) {
    96e4:	0733      	lsls	r3, r6, #28
    96e6:	d42f      	bmi.n	9748 <printk+0x460>
D:\app_for_qianrushi\exam\21\Debug/srcc/printf.c:600
				printk_pad_zero(vlen, field_width, &count, info);
				vlen = field_width;
			} else {
				if (!IS_FLAG_MINUS(flags_used)) {
    96e8:	07f3      	lsls	r3, r6, #31
    96ea:	d43a      	bmi.n	9762 <printk+0x47a>
D:\app_for_qianrushi\exam\21\Debug/srcc/printf.c:601
					printk_pad_space(vlen, field_width, &count, info);
    96ec:	9b00      	ldr	r3, [sp, #0]
    96ee:	aa0a      	add	r2, sp, #40	; 0x28
    96f0:	0021      	movs	r1, r4
    96f2:	4648      	mov	r0, r9
    96f4:	f7ff fd1e 	bl	9134 <printk_pad_space>
    96f8:	e033      	b.n	9762 <printk+0x47a>
D:\app_for_qianrushi\exam\21\Debug/srcc/printf.c:582
			uval = (unsigned int) va_arg(ap, unsigned int);
    96fa:	4643      	mov	r3, r8
    96fc:	1d1f      	adds	r7, r3, #4
    96fe:	681b      	ldr	r3, [r3, #0]
    9700:	9305      	str	r3, [sp, #20]
D:\app_for_qianrushi\exam\21\Debug/srcc/printf.c:583
			vlen = printk_mknumstr(vstr, &uval, FALSE, 2);
    9702:	2302      	movs	r3, #2
    9704:	2200      	movs	r2, #0
    9706:	a905      	add	r1, sp, #20
    9708:	a80b      	add	r0, sp, #44	; 0x2c
    970a:	f7ff fcc2 	bl	9092 <printk_mknumstr>
    970e:	4681      	mov	r9, r0
D:\app_for_qianrushi\exam\21\Debug/srcc/printf.c:582
			uval = (unsigned int) va_arg(ap, unsigned int);
    9710:	46b8      	mov	r8, r7
D:\app_for_qianrushi\exam\21\Debug/srcc/printf.c:584
			goto cont_u;
    9712:	e7e5      	b.n	96e0 <printk+0x3f8>
D:\app_for_qianrushi\exam\21\Debug/srcc/printf.c:587
			uval = (unsigned int) va_arg(ap, void *);
    9714:	4643      	mov	r3, r8
    9716:	1d1f      	adds	r7, r3, #4
    9718:	681b      	ldr	r3, [r3, #0]
    971a:	9305      	str	r3, [sp, #20]
D:\app_for_qianrushi\exam\21\Debug/srcc/printf.c:588
			vlen = printk_mknumstr(vstr, &uval, FALSE, 16);
    971c:	2310      	movs	r3, #16
    971e:	2200      	movs	r2, #0
    9720:	a905      	add	r1, sp, #20
    9722:	a80b      	add	r0, sp, #44	; 0x2c
    9724:	f7ff fcb5 	bl	9092 <printk_mknumstr>
    9728:	4681      	mov	r9, r0
D:\app_for_qianrushi\exam\21\Debug/srcc/printf.c:587
			uval = (unsigned int) va_arg(ap, void *);
    972a:	46b8      	mov	r8, r7
D:\app_for_qianrushi\exam\21\Debug/srcc/printf.c:589
			goto cont_u;
    972c:	e7d8      	b.n	96e0 <printk+0x3f8>
D:\app_for_qianrushi\exam\21\Debug/srcc/printf.c:591
			uval = (unsigned int) va_arg(ap, unsigned int);
    972e:	4643      	mov	r3, r8
    9730:	1d1f      	adds	r7, r3, #4
    9732:	681b      	ldr	r3, [r3, #0]
    9734:	9305      	str	r3, [sp, #20]
D:\app_for_qianrushi\exam\21\Debug/srcc/printf.c:592
			vlen = printk_mknumstr(vstr, &uval, FALSE, 10);
    9736:	230a      	movs	r3, #10
    9738:	2200      	movs	r2, #0
    973a:	a905      	add	r1, sp, #20
    973c:	a80b      	add	r0, sp, #44	; 0x2c
    973e:	f7ff fca8 	bl	9092 <printk_mknumstr>
    9742:	4681      	mov	r9, r0
D:\app_for_qianrushi\exam\21\Debug/srcc/printf.c:591
			uval = (unsigned int) va_arg(ap, unsigned int);
    9744:	46b8      	mov	r8, r7
    9746:	e7cb      	b.n	96e0 <printk+0x3f8>
D:\app_for_qianrushi\exam\21\Debug/srcc/printf.c:597
				printk_pad_zero(vlen, field_width, &count, info);
    9748:	9b00      	ldr	r3, [sp, #0]
    974a:	aa0a      	add	r2, sp, #40	; 0x28
    974c:	0021      	movs	r1, r4
    974e:	4648      	mov	r0, r9
    9750:	f7ff fce1 	bl	9116 <printk_pad_zero>
D:\app_for_qianrushi\exam\21\Debug/srcc/printf.c:598
				vlen = field_width;
    9754:	46a1      	mov	r9, r4
    9756:	e004      	b.n	9762 <printk+0x47a>
D:\app_for_qianrushi\exam\21\Debug/srcc/printf.c:606
				}
			}

			cont_xd: while (*vstrp)
				printk_putc(*vstrp--, &count, info);
    9758:	3f01      	subs	r7, #1
    975a:	9a00      	ldr	r2, [sp, #0]
    975c:	a90a      	add	r1, sp, #40	; 0x28
    975e:	f7ff fc83 	bl	9068 <printk_putc>
D:\app_for_qianrushi\exam\21\Debug/srcc/printf.c:605 (discriminator 1)
			cont_xd: while (*vstrp)
    9762:	2000      	movs	r0, #0
    9764:	5638      	ldrsb	r0, [r7, r0]
    9766:	2800      	cmp	r0, #0
    9768:	d1f6      	bne.n	9758 <printk+0x470>
D:\app_for_qianrushi\exam\21\Debug/srcc/printf.c:608

			if (IS_FLAG_MINUS(flags_used)) {
    976a:	07f3      	lsls	r3, r6, #31
    976c:	d400      	bmi.n	9770 <printk+0x488>
    976e:	e5df      	b.n	9330 <printk+0x48>
D:\app_for_qianrushi\exam\21\Debug/srcc/printf.c:609
				printk_pad_space(vlen, field_width, &count, info);
    9770:	9b00      	ldr	r3, [sp, #0]
    9772:	aa0a      	add	r2, sp, #40	; 0x28
    9774:	0021      	movs	r1, r4
    9776:	4648      	mov	r0, r9
    9778:	f7ff fcdc 	bl	9134 <printk_pad_space>
    977c:	e5d8      	b.n	9330 <printk+0x48>
D:\app_for_qianrushi\exam\21\Debug/srcc/printf.c:541
			uval = (unsigned int) va_arg(ap, unsigned int);
    977e:	9b02      	ldr	r3, [sp, #8]
    9780:	4698      	mov	r8, r3
    9782:	e7ee      	b.n	9762 <printk+0x47a>
D:\app_for_qianrushi\exam\21\Debug/srcc/printf.c:615
			}

			break;
        //字符型输出
		case 'c':
			cval = (char) va_arg(ap, unsigned int);
    9784:	4643      	mov	r3, r8
    9786:	1d1c      	adds	r4, r3, #4
    9788:	2000      	movs	r0, #0
    978a:	5618      	ldrsb	r0, [r3, r0]
D:\app_for_qianrushi\exam\21\Debug/srcc/printf.c:616
			printk_putc(cval, &count, info);
    978c:	9a00      	ldr	r2, [sp, #0]
    978e:	a90a      	add	r1, sp, #40	; 0x28
    9790:	f7ff fc6a 	bl	9068 <printk_putc>
D:\app_for_qianrushi\exam\21\Debug/srcc/printf.c:615
			cval = (char) va_arg(ap, unsigned int);
    9794:	46a0      	mov	r8, r4
D:\app_for_qianrushi\exam\21\Debug/srcc/printf.c:617
			break;
    9796:	e5cb      	b.n	9330 <printk+0x48>
D:\app_for_qianrushi\exam\21\Debug/srcc/printf.c:619
		case 's':
			sval = (char *) va_arg(ap, char *);
    9798:	4643      	mov	r3, r8
    979a:	3304      	adds	r3, #4
    979c:	9302      	str	r3, [sp, #8]
    979e:	4643      	mov	r3, r8
    97a0:	681f      	ldr	r7, [r3, #0]
D:\app_for_qianrushi\exam\21\Debug/srcc/printf.c:620
			if (sval) {
    97a2:	2f00      	cmp	r7, #0
    97a4:	d044      	beq.n	9830 <printk+0x548>
D:\app_for_qianrushi\exam\21\Debug/srcc/printf.c:621
				vlen = strlen(sval);
    97a6:	0038      	movs	r0, r7
    97a8:	f7fe fca4 	bl	80f4 <strlen>
    97ac:	9003      	str	r0, [sp, #12]
D:\app_for_qianrushi\exam\21\Debug/srcc/printf.c:622
				if (!IS_FLAG_MINUS(flags_used)) {
    97ae:	2301      	movs	r3, #1
    97b0:	401e      	ands	r6, r3
    97b2:	d013      	beq.n	97dc <printk+0x4f4>
D:\app_for_qianrushi\exam\21\Debug/srcc/printf.c:625
					printk_pad_space(vlen, field_width, &count, info);
				}
				if(precision_width!=0)
    97b4:	464b      	mov	r3, r9
    97b6:	2b00      	cmp	r3, #0
    97b8:	d01b      	beq.n	97f2 <printk+0x50a>
D:\app_for_qianrushi\exam\21\Debug/srcc/printf.c:627
				{
					while (*sval)
    97ba:	2000      	movs	r0, #0
    97bc:	5638      	ldrsb	r0, [r7, r0]
    97be:	2800      	cmp	r0, #0
    97c0:	d01b      	beq.n	97fa <printk+0x512>
D:\app_for_qianrushi\exam\21\Debug/srcc/printf.c:629
					{
						if(precision_width>=1)
    97c2:	464b      	mov	r3, r9
    97c4:	2b00      	cmp	r3, #0
    97c6:	ddf8      	ble.n	97ba <printk+0x4d2>
D:\app_for_qianrushi\exam\21\Debug/srcc/printf.c:631
						{
							precision_width--;
    97c8:	2301      	movs	r3, #1
    97ca:	425b      	negs	r3, r3
    97cc:	469c      	mov	ip, r3
    97ce:	44e1      	add	r9, ip
D:\app_for_qianrushi\exam\21\Debug/srcc/printf.c:632
							printk_putc(*sval++, &count, info);
    97d0:	3701      	adds	r7, #1
    97d2:	9a00      	ldr	r2, [sp, #0]
    97d4:	a90a      	add	r1, sp, #40	; 0x28
    97d6:	f7ff fc47 	bl	9068 <printk_putc>
    97da:	e7ee      	b.n	97ba <printk+0x4d2>
D:\app_for_qianrushi\exam\21\Debug/srcc/printf.c:623
					printk_pad_space(vlen, field_width, &count, info);
    97dc:	9b00      	ldr	r3, [sp, #0]
    97de:	aa0a      	add	r2, sp, #40	; 0x28
    97e0:	0021      	movs	r1, r4
    97e2:	f7ff fca7 	bl	9134 <printk_pad_space>
    97e6:	e7e5      	b.n	97b4 <printk+0x4cc>
D:\app_for_qianrushi\exam\21\Debug/srcc/printf.c:639
					}
				}
				else    //precision_width=0情况
				{
					while (*sval)
					   printk_putc(*sval++, &count, info);
    97e8:	3701      	adds	r7, #1
    97ea:	9a00      	ldr	r2, [sp, #0]
    97ec:	a90a      	add	r1, sp, #40	; 0x28
    97ee:	f7ff fc3b 	bl	9068 <printk_putc>
D:\app_for_qianrushi\exam\21\Debug/srcc/printf.c:638
					while (*sval)
    97f2:	2000      	movs	r0, #0
    97f4:	5638      	ldrsb	r0, [r7, r0]
    97f6:	2800      	cmp	r0, #0
    97f8:	d1f6      	bne.n	97e8 <printk+0x500>
D:\app_for_qianrushi\exam\21\Debug/srcc/printf.c:641
				}
				if (IS_FLAG_MINUS(flags_used)) {
    97fa:	2e00      	cmp	r6, #0
    97fc:	d102      	bne.n	9804 <printk+0x51c>
D:\app_for_qianrushi\exam\21\Debug/srcc/printf.c:619
			sval = (char *) va_arg(ap, char *);
    97fe:	9b02      	ldr	r3, [sp, #8]
    9800:	4698      	mov	r8, r3
    9802:	e595      	b.n	9330 <printk+0x48>
D:\app_for_qianrushi\exam\21\Debug/srcc/printf.c:642
					printk_pad_space(vlen, field_width, &count, info);
    9804:	9b00      	ldr	r3, [sp, #0]
    9806:	aa0a      	add	r2, sp, #40	; 0x28
    9808:	0021      	movs	r1, r4
    980a:	9803      	ldr	r0, [sp, #12]
    980c:	f7ff fc92 	bl	9134 <printk_pad_space>
D:\app_for_qianrushi\exam\21\Debug/srcc/printf.c:619
			sval = (char *) va_arg(ap, char *);
    9810:	9b02      	ldr	r3, [sp, #8]
    9812:	4698      	mov	r8, r3
    9814:	e58c      	b.n	9330 <printk+0x48>
D:\app_for_qianrushi\exam\21\Debug/srcc/printf.c:647
				}
			}
			break;
		case 'n':
			ivalp = (int *) va_arg(ap, int *);
    9816:	4643      	mov	r3, r8
    9818:	681b      	ldr	r3, [r3, #0]
D:\app_for_qianrushi\exam\21\Debug/srcc/printf.c:648
			*ivalp = count;
    981a:	9a0a      	ldr	r2, [sp, #40]	; 0x28
    981c:	601a      	str	r2, [r3, #0]
D:\app_for_qianrushi\exam\21\Debug/srcc/printf.c:647
			ivalp = (int *) va_arg(ap, int *);
    981e:	2304      	movs	r3, #4
    9820:	469c      	mov	ip, r3
    9822:	44e0      	add	r8, ip
D:\app_for_qianrushi\exam\21\Debug/srcc/printf.c:649
			break;
    9824:	e584      	b.n	9330 <printk+0x48>
D:\app_for_qianrushi\exam\21\Debug/srcc/printf.c:652

		default:
			printk_putc(c, &count, info);
    9826:	9a00      	ldr	r2, [sp, #0]
    9828:	a90a      	add	r1, sp, #40	; 0x28
    982a:	f7ff fc1d 	bl	9068 <printk_putc>
D:\app_for_qianrushi\exam\21\Debug/srcc/printf.c:653
			break;
    982e:	e57f      	b.n	9330 <printk+0x48>
D:\app_for_qianrushi\exam\21\Debug/srcc/printf.c:619
			sval = (char *) va_arg(ap, char *);
    9830:	9b02      	ldr	r3, [sp, #8]
    9832:	4698      	mov	r8, r3
    9834:	e57c      	b.n	9330 <printk+0x48>
D:\app_for_qianrushi\exam\21\Debug/srcc/printf.c:657
		}
	}
	return count;
}
    9836:	980a      	ldr	r0, [sp, #40]	; 0x28
    9838:	b015      	add	sp, #84	; 0x54
    983a:	bc3c      	pop	{r2, r3, r4, r5}
    983c:	4690      	mov	r8, r2
    983e:	4699      	mov	r9, r3
    9840:	46a2      	mov	sl, r4
    9842:	46ab      	mov	fp, r5
    9844:	bdf0      	pop	{r4, r5, r6, r7, pc}
    9846:	46c0      	nop			; (mov r8, r8)

00009848 <myprintf>:
myprintf():
D:\app_for_qianrushi\exam\21\Debug/srcc/printf.c:665
//参数说明：const char *:打印参数字符串：对输入的字符串进行解析并按格式输出
//       例如： printf("c=%c\n",c); 将c按char型进行输出
//函数返回：字符串长度
//======================================================================
int myprintf(const char *fmt, ...)
{
    9848:	b40f      	push	{r0, r1, r2, r3}
    984a:	b500      	push	{lr}
    984c:	b085      	sub	sp, #20
D:\app_for_qianrushi\exam\21\Debug/srcc/printf.c:669
	char * ap;
	int rvalue;
	PRINTK_INFO info;
	info.dest = DEST_CONSOLE;  //宏定义为1
    984e:	2301      	movs	r3, #1
    9850:	9301      	str	r3, [sp, #4]
D:\app_for_qianrushi\exam\21\Debug/srcc/printf.c:670
	info.func = &out_char;     //调用的串口输出函数
    9852:	4b05      	ldr	r3, [pc, #20]	; (9868 <myprintf+0x20>)
    9854:	9302      	str	r3, [sp, #8]
D:\app_for_qianrushi\exam\21\Debug/srcc/printf.c:673
	//对ap 进行初始化，让它指向可变参数表里面的第一个参数
	va_start(ap, fmt); 
	rvalue = printk(&info, fmt, ap);
    9856:	aa06      	add	r2, sp, #24
    9858:	ca02      	ldmia	r2!, {r1}
    985a:	a801      	add	r0, sp, #4
    985c:	f7ff fd44 	bl	92e8 <printk>
D:\app_for_qianrushi\exam\21\Debug/srcc/printf.c:678

	va_end(ap);

	return rvalue;
}
    9860:	b005      	add	sp, #20
    9862:	bc08      	pop	{r3}
    9864:	b004      	add	sp, #16
    9866:	4718      	bx	r3
    9868:	00009153 	.word	0x00009153

0000986c <memcpy>:
memcpy():
    986c:	2300      	movs	r3, #0
    986e:	b510      	push	{r4, lr}
    9870:	429a      	cmp	r2, r3
    9872:	d100      	bne.n	9876 <memcpy+0xa>
    9874:	bd10      	pop	{r4, pc}
    9876:	5ccc      	ldrb	r4, [r1, r3]
    9878:	54c4      	strb	r4, [r0, r3]
    987a:	3301      	adds	r3, #1
    987c:	e7f8      	b.n	9870 <memcpy+0x4>

0000987e <memset>:
memset():
    987e:	0003      	movs	r3, r0
    9880:	1812      	adds	r2, r2, r0
    9882:	4293      	cmp	r3, r2
    9884:	d100      	bne.n	9888 <memset+0xa>
    9886:	4770      	bx	lr
    9888:	7019      	strb	r1, [r3, #0]
    988a:	3301      	adds	r3, #1
    988c:	e7f9      	b.n	9882 <memset+0x4>
    988e:	0000      	movs	r0, r0
    9890:	00007614 	.word	0x00007614
    9894:	00007516 	.word	0x00007516
    9898:	00007516 	.word	0x00007516
    989c:	00007834 	.word	0x00007834
    98a0:	00007510 	.word	0x00007510
    98a4:	00007510 	.word	0x00007510
    98a8:	0000781c 	.word	0x0000781c
    98ac:	00007834 	.word	0x00007834
    98b0:	00007510 	.word	0x00007510
    98b4:	0000781c 	.word	0x0000781c
    98b8:	00007510 	.word	0x00007510
    98bc:	00007834 	.word	0x00007834
    98c0:	0000782a 	.word	0x0000782a
    98c4:	0000782a 	.word	0x0000782a
    98c8:	0000782a 	.word	0x0000782a
    98cc:	00007838 	.word	0x00007838
    98d0:	00736559 	.word	0x00736559
    98d4:	e2cdecba 	.word	0xe2cdecba
    98d8:	e0bcbaa3 	.word	0xe0bcbaa3
    98dc:	d0d3e2b2 	.word	0xd0d3e2b2
    98e0:	0a0dcbc8 	.word	0x0a0dcbc8
    98e4:	00000a0d 	.word	0x00000a0d
    98e8:	00206f4e 	.word	0x00206f4e
    98ec:	e2cdecba 	.word	0xe2cdecba
    98f0:	e0bcbaa3 	.word	0xe0bcbaa3
    98f4:	decee2b2 	.word	0xdecee2b2
    98f8:	0a0dcbc8 	.word	0x0a0dcbc8
    98fc:	00000a0d 	.word	0x00000a0d
    9900:	b344434c 	.word	0xb344434c
    9904:	bbbccaf5 	.word	0xbbbccaf5
    9908:	2e2e2eaf 	.word	0x2e2e2eaf
    990c:	00000000 	.word	0x00000000
    9910:	a6b9c9b3 	.word	0xa6b9c9b3
    9914:	0000000a 	.word	0x0000000a
    9918:	2d4c4841 	.word	0x2d4c4841
    991c:	2d55434d 	.word	0x2d55434d
    9920:	36334c4b 	.word	0x36334c4b
    9924:	00000000 	.word	0x00000000
    9928:	73726550 	.word	0x73726550
    992c:	003a6e6f 	.word	0x003a6e6f

00009930 <GPIO_ARR>:
    9930:	400ff000 400ff040 400ff080 400ff0c0     ...@@..@...@...@
    9940:	400ff100                                ...@

00009944 <PORT_ARR>:
    9944:	40049000 4004a000 4004b000 4004c000     ...@...@...@...@
    9954:	4004d000 33323130 37363534 42413938     ...@0123456789AB
    9964:	46454443 30323032 36313730 00000000     CDEF20200716....
    9974:	bea12020 72657355 becae1cc baa3bfa1       ..User........
    9984:	f8bdabbd 7355ebc8 c4b57265 6e69616d     ......User..main
    9994:	b4d62928 2e2ed0d0 000a0d2e              ()..........

000099a0 <UART_ARR>:
    99a0:	4006b000 4006c000                       ...@...@

000099a8 <GB_16>:
    99a8:	0080f0bd 01400080 04100220 77f40a08     ......@. ......w
    99b8:	00802083 00800ff8 04900888 3ffe12a0     . .............?
    99c8:	f9ba0000 22200220 02207fff 22903e10     .... . ".. ..>."
    99d8:	3e1023fe 22fc2250 22443e44 227c2244     .#.>P"."D>D"D"|"
    99e8:	10802944 0410abc2 7fff2410 10800410     D).......$......
    99f8:	10043ffc 1ffc1004 00041004 00040004     .?..............
    9a08:	00020002 00000001                       ........

00009a10 <nAsciiDot>:
	...
    9a20:	3c180000 18183c3c 18180018 00000000     ...<<<..........
    9a30:	66666600 00000024 00000000 00000000     .fff$...........
    9a40:	36000000 36367f36 36367f36 00000000     ...66.666.66....
    9a50:	633e1818 603e0343 183e6361 00000018     ..>cC.>`ac>.....
    9a60:	00000000 18306343 6163060c 00000000     ....Cc0...ca....
    9a70:	361c0000 3b6e1c36 6e333333 00000000     ...66.n;333n....
    9a80:	0c0c0c00 00000006 00000000 00000000     ................
    9a90:	18300000 0c0c0c0c 30180c0c 00000000     ..0........0....
    9aa0:	180c0000 30303030 0c183030 00000000     ....000000......
    9ab0:	00000000 ff3c6600 0000663c 00000000     .....f<.<f......
    9ac0:	00000000 7e181800 00001818 00000000     .......~........
	...
    9ad8:	18181800 0000000c 00000000 7f000000     ................
	...
    9af8:	18180000 00000000 00000000 18306040     ............@`0.
    9b08:	0103060c 00000000 633e0000 6b6b7363     ..........>ccskk
    9b18:	3e636367 00000000 1c180000 1818181e     gcc>............
    9b28:	7e181818 00000000 633e0000 0c183060     ...~......>c`0..
    9b38:	7f630306 00000000 633e0000 603c6060     ..c.......>c``<`
    9b48:	3e636060 00000000 38300000 7f33363c     ``c>......08<63.
    9b58:	78303030 00000000 037f0000 703f0303     000x..........?p
    9b68:	3e636060 00000000 061c0000 633f0303     ``c>..........?c
    9b78:	3e636363 00000000 637f0000 18306060     ccc>.......c``0.
    9b88:	0c0c0c0c 00000000 633e0000 633e6363     ..........>ccc>c
    9b98:	3e636363 00000000 633e0000 607e6363     ccc>......>ccc~`
    9ba8:	1e306060 00000000 00000000 00001818     ``0.............
    9bb8:	00181800 00000000 00000000 00001818     ................
    9bc8:	0c181800 00000000 60000000 060c1830     ...........`0...
    9bd8:	6030180c 00000000 00000000 007f0000     ..0`............
    9be8:	00007f00 00000000 06000000 6030180c     ..............0`
    9bf8:	060c1830 00000000 633e0000 18183063     0.........>cc0..
    9c08:	18180018 00000000 3e000000 7b7b6363     ...........>cc{{
    9c18:	3e033b7b 00000000 1c080000 7f636336     {;.>........6cc.
    9c28:	63636363 00000000 663f0000 663e6666     cccc......?fff>f
    9c38:	3f666666 00000000 663c0000 03030343     fff?......<fC...
    9c48:	3c664303 00000000 361f0000 66666666     .Cf<.......6ffff
    9c58:	1f366666 00000000 667f0000 161e1646     ff6........fF...
    9c68:	7f664606 00000000 667f0000 161e1646     .Ff........fF...
    9c78:	0f060606 00000000 663c0000 7b030343     ..........<fC..{
    9c88:	5c666363 00000000 63630000 637f6363     ccf\......cccc.c
    9c98:	63636363 00000000 183c0000 18181818     cccc......<.....
    9ca8:	3c181818 00000000 30780000 30303030     ...<......x00000
    9cb8:	1e333333 00000000 66670000 1e1e3636     333.......gf66..
    9cc8:	67666636 00000000 060f0000 06060606     6ffg............
    9cd8:	7f664606 00000000 77630000 636b7f7f     .Ff.......cw..kc
    9ce8:	63636363 00000000 67630000 737b7f6f     cccc......cgo.{s
    9cf8:	63636363 00000000 361c0000 63636363     cccc.......6cccc
    9d08:	1c366363 00000000 663f0000 063e6666     cc6.......?fff>.
    9d18:	0f060606 00000000 633e0000 63636363     ..........>ccccc
    9d28:	3e7b6b63 00007030 663f0000 363e6666     ck{>0p....?fff>6
    9d38:	67666666 00000000 633e0000 301c0663     fffg......>cc..0
    9d48:	3e636360 00000000 7e7e0000 1818185a     `cc>......~~Z...
    9d58:	3c181818 00000000 63630000 63636363     ...<......cccccc
    9d68:	3e636363 00000000 63630000 63636363     ccc>......cccccc
    9d78:	081c3663 00000000 63630000 6b636363     c6........ccccck
    9d88:	36367f6b 00000000 63630000 1c1c3636     k.66......cc66..
    9d98:	63633636 00000000 66660000 183c6666     66cc......ffff<.
    9da8:	3c181818 00000000 637f0000 0c183061     ...<.......ca0..
    9db8:	7f634306 00000000 0c3c0000 0c0c0c0c     .Cc.......<.....
    9dc8:	3c0c0c0c 00000000 01000000 1c0e0703     ...<............
    9dd8:	40607038 00000000 303c0000 30303030     8p`@......<00000
    9de8:	3c303030 00000000 63361c08 00000000     000<......6c....
	...
    9e0c:	0000ff00 00180c0c 00000000 00000000     ................
	...
    9e24:	3e301e00 6e333333 00000000 06070000     ..0>333n........
    9e34:	66361e06 3b666666 00000000 00000000     ..6ffff;........
    9e44:	03633e00 3e630303 00000000 30380000     .>c...c>......80
    9e54:	33363c30 6e333333 00000000 00000000     0<63333n........
    9e64:	7f633e00 3e630303 00000000 361c0000     .>c...c>.......6
    9e74:	060f0626 0f060606 00000000 00000000     &...............
    9e84:	33336e00 3e333333 001e3330 06070000     .n33333>03......
    9e94:	666e3606 67666666 00000000 18180000     .6nffffg........
    9ea4:	18181c00 3c181818 00000000 60600000     .......<......``
    9eb4:	60607000 60606060 003c6666 06070000     .p``````ff<.....
    9ec4:	1e366606 6766361e 00000000 181c0000     .f6..6fg........
    9ed4:	18181818 3c181818 00000000 00000000     .......<........
    9ee4:	6b7f3700 6b6b6b6b 00000000 00000000     .7.kkkkk........
    9ef4:	66663b00 66666666 00000000 00000000     .;ffffff........
    9f04:	63633e00 3e636363 00000000 00000000     .>ccccc>........
    9f14:	66663b00 3e666666 000f0606 00000000     .;fffff>........
    9f24:	33336e00 3e333333 00783030 00000000     .n33333>00x.....
    9f34:	466e3b00 0f060606 00000000 00000000     .;nF............
    9f44:	06633e00 3e63301c 00000000 0c080000     .>c..0c>........
    9f54:	0c0c3f0c 386c0c0c 00000000 00000000     .?....l8........
    9f64:	33333300 6e333333 00000000 00000000     .333333n........
    9f74:	66666600 183c6666 00000000 00000000     .fffff<.........
    9f84:	63636300 367f6b6b 00000000 00000000     .ccckk.6........
    9f94:	1c366300 63361c1c 00000000 00000000     .c6...6c........
    9fa4:	63636300 7e636363 001f3060 00000000     .cccccc~`0......
    9fb4:	18337f00 7f63060c 00000000 18700000     ..3...c.......p.
    9fc4:	180e1818 70181818 00000000 18180000     .......p........
    9fd4:	18001818 18181818 00000000 180e0000     ................
    9fe4:	18701818 0e181818 00000000 3b6e0000     ..p...........n;
	...
    a004:	63361c08 007f6363 00000000 00009374     ..6ccc......t...
    a014:	0000938c 0000938c 00009380 0000938c     ................
    a024:	0000938c 0000938c 0000938c 0000938c     ................
    a034:	0000938c 0000938c 0000936e 0000938c     ........n.......
    a044:	0000934e 0000938c 0000938c 0000937a     N...........z...
    a054:	000095fe 00009826 00009826 00009826     ....&...&...&...
    a064:	00009826 00009826 00009826 00009826     &...&...&...&...
    a074:	00009826 00009826 000096fa 00009784     &...&...........
    a084:	00009440 00009826 00009504 00009826     @...&.......&...
    a094:	00009826 00009440 00009826 00009826     &...@...&...&...
    a0a4:	00009826 00009826 00009816 000096c8     &...&...........
    a0b4:	00009714 00009826 00009826 00009798     ....&...&.......
    a0c4:	00009826 0000972e 00009826 00009826     &.......&...&...
    a0d4:	000095fe                                ....

0000a0d8 <_init>:
_init():
    a0d8:	b5f8      	push	{r3, r4, r5, r6, r7, lr}
    a0da:	46c0      	nop			; (mov r8, r8)
    a0dc:	bcf8      	pop	{r3, r4, r5, r6, r7}
    a0de:	bc08      	pop	{r3}
    a0e0:	469e      	mov	lr, r3
    a0e2:	4770      	bx	lr

0000a0e4 <_fini>:
_fini():
    a0e4:	b5f8      	push	{r3, r4, r5, r6, r7, lr}
    a0e6:	46c0      	nop			; (mov r8, r8)
    a0e8:	bcf8      	pop	{r3, r4, r5, r6, r7}
    a0ea:	bc08      	pop	{r3}
    a0ec:	469e      	mov	lr, r3
    a0ee:	4770      	bx	lr
